(dp0
S'assemblage-163-872'
p1
(lp2
I0
aI0
aI0
aI0
aI0
aI0
aI0
aI0
aI0
aI0
aI0
acnumpy.core.multiarray
scalar
p3
(cnumpy
dtype
p4
(S'f8'
p5
I0
I1
tp6
Rp7
(I3
S'<'
p8
NNNI-1
I-1
I0
tp9
bS'\x13\xa6\xffS,\xc4\xbc?'
p10
tp11
Rp12
aI0
ag3
(g7
S'\xac\xe2\xb8\xf2\xb1\xbd\x91?'
p13
tp14
Rp15
aI0
aI0
aI0
aI0
aI0
aI0
aI0
aI0
aI0
ag3
(g7
S'\xf5\xbe\xc4Z\x10\xe5\xb1?'
p16
tp17
Rp18
aI0
aI0
aI0
aI0
aI0
aI0
aI0
aI0
aI0
aI0
aI0
aI0
aI0
aI0
ag3
(g7
S'C\xd3\xbb\x10\x04;\xae?'
p19
tp20
Rp21
ag3
(g7
S'\x1b\xbe\xcb\xf7\xe70\xb1?'
p22
tp23
Rp24
aI0
aI0
aI0
aI0
aI0
aI0
aI0
aI0
aI0
aI0
aI0
aI0
aI0
ag3
(g7
S'X\x95F\xa9Q7\xe3?'
p25
tp26
Rp27
aI0
aI0
aI0
aI0
aI0
aI0
aI0
aI0
aI0
ag3
(g7
S'\x8c\xe9\xf61+\xed\x91?'
p28
tp29
Rp30
aI0
aI0
aI0
aI0
aI0
aI0
aI0
aI0
aI0
aI0
aI0
aI0
aI0
aI0
aI0
aI0
aI0
aI0
aI0
aI0
aI0
aI0
aI0
aI0
aI0
aI0
aI0
aI0
aI0
aI0
aI0
ag3
(g7
S'\n\xb2\x07\x8b\x1b \xa4?'
p31
tp32
Rp33
asS'assemblage-606-325'
p34
(lp35
I0
aI0
aI0
aI0
aI0
aI0
aI0
aI0
aI0
aI0
aI0
ag3
(g7
S'1\xd9(\x88\x0cZ\xbb?'
p36
tp37
Rp38
aI0
ag3
(g7
S'q:\x83\x1cC\xe8\x91?'
p39
tp40
Rp41
aI0
aI0
aI0
aI0
aI0
aI0
aI0
aI0
aI0
ag3
(g7
S'bI\xf5\xfe\xd2\xef\xb4?'
p42
tp43
Rp44
aI0
aI0
aI0
aI0
aI0
aI0
aI0
aI0
aI0
aI0
aI0
aI0
aI0
aI0
ag3
(g7
S'\x06U\x95\xfe\x83H\xb2?'
p45
tp46
Rp47
ag3
(g7
S'\x01\xe2Bi1^\xab?'
p48
tp49
Rp50
aI0
aI0
aI0
aI0
aI0
aI0
aI0
aI0
aI0
aI0
aI0
aI0
aI0
ag3
(g7
S'b\x1e\xd8\x04>\x99\xe3?'
p51
tp52
Rp53
aI0
aI0
aI0
aI0
aI0
aI0
aI0
aI0
aI0
aI0
aI0
aI0
aI0
aI0
aI0
aI0
aI0
aI0
aI0
aI0
aI0
aI0
aI0
aI0
aI0
aI0
aI0
aI0
aI0
aI0
aI0
aI0
aI0
aI0
aI0
aI0
aI0
aI0
aI0
aI0
aI0
ag3
(g7
S'\x05\xb5\\\xaa\xbf\x08\xa4?'
p54
tp55
Rp56
asS'assemblage-731-157'
p57
(lp58
I0
aI0
aI0
aI0
aI0
aI0
aI0
aI0
aI0
aI0
ag3
(g7
S'=]\xe2\x00\x16=\x7f?'
p59
tp60
Rp61
aI0
aI0
aI0
aI0
aI0
aI0
aI0
aI0
aI0
aI0
aI0
aI0
aI0
ag3
(g7
S'\xff\xf7\x98\xa1\x85\xc2\x8a?'
p62
tp63
Rp64
aI0
aI0
aI0
aI0
aI0
aI0
aI0
aI0
aI0
aI0
aI0
aI0
aI0
aI0
ag3
(g7
S'3\x05\xae3\xa8\x96\xe7?'
p65
tp66
Rp67
aI0
aI0
aI0
aI0
aI0
aI0
aI0
aI0
aI0
aI0
aI0
aI0
aI0
aI0
aI0
aI0
aI0
ag3
(g7
S'"\x17\x91\xdd\xb9\xd6\xb3?'
p68
tp69
Rp70
aI0
aI0
aI0
aI0
aI0
aI0
aI0
aI0
aI0
aI0
aI0
aI0
aI0
aI0
aI0
aI0
aI0
aI0
aI0
aI0
aI0
aI0
aI0
aI0
ag3
(g7
S'E\xa3\xcbX\xc3M\xa4?'
p71
tp72
Rp73
aI0
aI0
aI0
aI0
ag3
(g7
S'\xa0\xe8\xe7\xf7\xd1\xe7\xb5?'
p74
tp75
Rp76
aI0
aI0
aI0
aI0
aI0
aI0
aI0
ag3
(g7
S'\x8an\xc2\xd6\xdb[\x99?'
p77
tp78
Rp79
asS'assemblage-935-753'
p80
(lp81
I0
aI0
aI0
aI0
aI0
aI0
aI0
aI0
aI0
aI0
aI0
aI0
aI0
aI0
aI0
aI0
aI0
ag3
(g7
S'r~\x15H\xd8\xa9\xb8?'
p82
tp83
Rp84
aI0
aI0
aI0
aI0
aI0
aI0
aI0
aI0
aI0
aI0
aI0
aI0
aI0
aI0
aI0
aI0
ag3
(g7
S'b\x04p\x02_\xd6\x99?'
p85
tp86
Rp87
aI0
ag3
(g7
S'O\xf1\t\x97\xa3J\x82?'
p88
tp89
Rp90
aI0
aI0
ag3
(g7
S'\xe9w}\x99Tk\xde?'
p91
tp92
Rp93
aI0
aI0
aI0
aI0
aI0
aI0
aI0
aI0
aI0
aI0
aI0
ag3
(g7
S'Y\\\x85(\x84@\x90?'
p94
tp95
Rp96
aI0
ag3
(g7
S'\x0e_\x1b}\x07\xb5\xc4?'
p97
tp98
Rp99
aI0
aI0
aI0
ag3
(g7
S'\x14\xeeT2\x8b\x97\xa0?'
p100
tp101
Rp102
aI0
aI0
aI0
aI0
aI0
ag3
(g7
S'\x9f\xb9\xe3\x83\xf44\xb2?'
p103
tp104
Rp105
aI0
aI0
aI0
aI0
aI0
ag3
(g7
S'\xba\xd9i\x82\xa7\xe5\xa5?'
p106
tp107
Rp108
aI0
aI0
aI0
aI0
aI0
aI0
aI0
aI0
aI0
aI0
aI0
aI0
aI0
aI0
aI0
aI0
aI0
aI0
aI0
aI0
aI0
aI0
aI0
aI0
aI0
ag3
(g7
S'\xfd\xf1"\xb8>#\xa9?'
p109
tp110
Rp111
asS'assemblage-941-646'
p112
(lp113
I0
aI0
aI0
aI0
ag3
(g7
S'D\x12\x83\xed\xed4\x91?'
p114
tp115
Rp116
aI0
aI0
aI0
aI0
aI0
aI0
aI0
aI0
aI0
aI0
aI0
aI0
aI0
aI0
aI0
aI0
aI0
aI0
aI0
ag3
(g7
S'-B\x8bv\x8al\xbe?'
p117
tp118
Rp119
aI0
aI0
aI0
aI0
aI0
ag3
(g7
S'\xdc\xe8\x8cN\xcb\x10\xc7?'
p120
tp121
Rp122
aI0
aI0
aI0
aI0
aI0
aI0
aI0
aI0
ag3
(g7
S'\x80\xda\xb2\x02\xf6=\xcc?'
p123
tp124
Rp125
aI0
aI0
aI0
aI0
aI0
aI0
aI0
aI0
aI0
aI0
aI0
aI0
aI0
aI0
ag3
(g7
S' \x04\x97j<\xces?'
p126
tp127
Rp128
ag3
(g7
S'\xfc\xd5\xfd{\x00b\xad?'
p129
tp130
Rp131
aI0
ag3
(g7
S'\xc9B\xb2\xb9#\xcc\xa3?'
p132
tp133
Rp134
aI0
aI0
aI0
aI0
aI0
aI0
aI0
aI0
aI0
ag3
(g7
S'\xc0\xf7E\x99\xcb\xd2\xb8?'
p135
tp136
Rp137
aI0
aI0
aI0
ag3
(g7
S'5\x07&\xa3\xc9\xfa\xa3?'
p138
tp139
Rp140
ag3
(g7
S'+h\x8d\t\x8b\xf0\x81?'
p141
tp142
Rp143
aI0
aI0
aI0
aI0
aI0
aI0
ag3
(g7
S'\x80]J\xd0\xec-\xbe?'
p144
tp145
Rp146
aI0
aI0
ag3
(g7
S'`.;\x8b\xaaX\x93?'
p147
tp148
Rp149
aI0
aI0
aI0
aI0
aI0
aI0
aI0
aI0
aI0
aI0
aI0
aI0
ag3
(g7
S'\x8d\xd5&\xc2\x8fI\xab?'
p150
tp151
Rp152
asS'assemblage-777-252'
p153
(lp154
I0
aI0
aI0
aI0
ag3
(g7
S'\xd5\x12&u>f\x97?'
p155
tp156
Rp157
aI0
aI0
aI0
aI0
aI0
aI0
aI0
aI0
aI0
aI0
aI0
aI0
aI0
aI0
aI0
aI0
aI0
aI0
aI0
aI0
aI0
aI0
aI0
aI0
aI0
aI0
aI0
aI0
aI0
aI0
aI0
aI0
aI0
aI0
ag3
(g7
S'\x98\x8ajnkE\xcf?'
p158
tp159
Rp160
aI0
ag3
(g7
S'\xc3\xf9U\x1c\x02\x93\x92?'
p161
tp162
Rp163
aI0
aI0
aI0
aI0
aI0
aI0
aI0
aI0
aI0
aI0
ag3
(g7
S'\xb7\x0f\xff\xc1\x8f\x13\x99?'
p164
tp165
Rp166
aI0
aI0
aI0
aI0
ag3
(g7
S'r\x11\x9a9\x03\x0e\xc9?'
p167
tp168
Rp169
aI0
aI0
aI0
aI0
aI0
ag3
(g7
S'\xde\x14:Z.H\xda?'
p170
tp171
Rp172
aI0
aI0
aI0
aI0
aI0
aI0
aI0
aI0
aI0
aI0
aI0
aI0
aI0
aI0
aI0
aI0
aI0
ag3
(g7
S',-o\xdb\xe0\xd1\x80?'
p173
tp174
Rp175
aI0
aI0
aI0
aI0
aI0
aI0
aI0
aI0
aI0
aI0
aI0
aI0
ag3
(g7
S'\x03\xb6\xb5\xfc\xa2d\x8a?'
p176
tp177
Rp178
ag3
(g7
S'*\xb4\x11\xbf\x0bz\xa6?'
p179
tp180
Rp181
asS'assemblage-767-714'
p182
(lp183
I0
aI0
aI0
aI0
aI0
aI0
aI0
aI0
aI0
aI0
aI0
ag3
(g7
S'&\xec\x103P\xbf\xaf?'
p184
tp185
Rp186
aI0
aI0
aI0
aI0
aI0
aI0
aI0
aI0
aI0
aI0
aI0
aI0
aI0
aI0
aI0
aI0
aI0
aI0
aI0
aI0
aI0
aI0
aI0
aI0
ag3
(g7
S'|\xcf\xe8\xd1\x9e\xd1\x7f?'
p187
tp188
Rp189
aI0
aI0
ag3
(g7
S'\xcd\xc5\x80\xf7\x81\xb1\xd1?'
p190
tp191
Rp192
aI0
aI0
aI0
aI0
aI0
aI0
aI0
aI0
aI0
aI0
aI0
aI0
aI0
aI0
aI0
aI0
aI0
ag3
(g7
S'X)1\x17\xf2\xeb\x8b?'
p193
tp194
Rp195
aI0
aI0
aI0
aI0
aI0
ag3
(g7
S't\xdcn\x9b\xba\xce\xdd?'
p196
tp197
Rp198
aI0
ag3
(g7
S'a\xdc\xc0\xd8~t\x90?'
p199
tp200
Rp201
aI0
aI0
aI0
aI0
aI0
aI0
aI0
aI0
aI0
aI0
ag3
(g7
S'\xfd\\\x97\xd02\xed\xba?'
p202
tp203
Rp204
aI0
aI0
aI0
aI0
aI0
aI0
aI0
aI0
aI0
aI0
aI0
aI0
aI0
aI0
aI0
aI0
aI0
aI0
ag3
(g7
S'xK\x85T\x96\x8e\xa2?'
p205
tp206
Rp207
asS'assemblage-590-352'
p208
(lp209
I0
aI0
ag3
(g7
S'\x08\xa5\x80\xc1\xa2\x13\xa4?'
p210
tp211
Rp212
aI0
aI0
ag3
(g7
S'ox\xfb\x86\xb0>\x93?'
p213
tp214
Rp215
aI0
aI0
aI0
aI0
aI0
ag3
(g7
S'\x03\x90a\xc7\xa2\x7f\xb4?'
p216
tp217
Rp218
aI0
aI0
aI0
aI0
aI0
aI0
aI0
aI0
aI0
aI0
aI0
ag3
(g7
S'{\x7f\x95^3\x95\x90?'
p219
tp220
Rp221
aI0
aI0
aI0
aI0
aI0
aI0
aI0
aI0
aI0
aI0
aI0
aI0
aI0
aI0
aI0
ag3
(g7
S's\xfeYwJ\xbb\xe5?'
p222
tp223
Rp224
aI0
aI0
aI0
aI0
aI0
aI0
aI0
aI0
aI0
aI0
aI0
aI0
aI0
ag3
(g7
S'A\x8a\xe7;k\x9f\xb5?'
p225
tp226
Rp227
aI0
aI0
aI0
aI0
aI0
aI0
aI0
aI0
aI0
aI0
ag3
(g7
S'\x89|\xb0\x19u\x01\x8f?'
p228
tp229
Rp230
aI0
aI0
aI0
aI0
aI0
aI0
aI0
aI0
aI0
aI0
aI0
aI0
aI0
aI0
aI0
aI0
aI0
aI0
aI0
aI0
aI0
aI0
aI0
aI0
aI0
aI0
aI0
aI0
aI0
aI0
ag3
(g7
S'\xbb\xc9p\xad\x0e\xc6\xa9?'
p231
tp232
Rp233
asS'assemblage-723-161'
p234
(lp235
I0
aI0
aI0
aI0
ag3
(g7
S'a1>\x18~\x95\xcb?'
p236
tp237
Rp238
aI0
aI0
aI0
aI0
aI0
aI0
aI0
aI0
aI0
aI0
aI0
aI0
aI0
aI0
aI0
aI0
ag3
(g7
S'c\xbb\xeb\xee`\xf9\x86?'
p239
tp240
Rp241
aI0
aI0
ag3
(g7
S' \xe1\xeehHK\xa4?'
p242
tp243
Rp244
aI0
aI0
aI0
aI0
aI0
aI0
aI0
aI0
aI0
aI0
aI0
aI0
aI0
aI0
ag3
(g7
S',\x16\xb0\xc1\xe3C\xd5?'
p245
tp246
Rp247
aI0
aI0
aI0
aI0
aI0
aI0
aI0
aI0
ag3
(g7
S'\xb9\xfe\x15\xb51?\xa4?'
p248
tp249
Rp250
aI0
aI0
aI0
aI0
aI0
aI0
aI0
aI0
ag3
(g7
S'54\x849\x99q\xc9?'
p251
tp252
Rp253
aI0
aI0
aI0
aI0
aI0
aI0
aI0
aI0
aI0
aI0
aI0
aI0
aI0
aI0
aI0
aI0
aI0
aI0
aI0
aI0
aI0
aI0
aI0
aI0
ag3
(g7
S'\xd5N\xa0[\xaf\xf5\x96?'
p254
tp255
Rp256
aI0
aI0
aI0
aI0
ag3
(g7
S'u\x1eQ\xdb\xdb\xe4\x9a?'
p257
tp258
Rp259
aI0
aI0
ag3
(g7
S'\x7f\xdc\xfd\x85y\xb7\xa4?'
p260
tp261
Rp262
aI0
aI0
ag3
(g7
S'\xc4de5\xe2\xd4\x86?'
p263
tp264
Rp265
aI0
ag3
(g7
S'"$\x94\xc4\xd9\x8e\xa4?'
p266
tp267
Rp268
asS'assemblage-364-776'
p269
(lp270
I0
aI0
aI0
aI0
ag3
(g7
S'\x06\x0c\x0c\x070\xb5\xba?'
p271
tp272
Rp273
aI0
aI0
aI0
aI0
aI0
aI0
aI0
aI0
aI0
aI0
ag3
(g7
S'C&{\xd9\xbfh\x97?'
p274
tp275
Rp276
aI0
aI0
aI0
aI0
aI0
aI0
aI0
aI0
aI0
aI0
ag3
(g7
S'\xb2\xa3\xe4+:\xf8\x89?'
p277
tp278
Rp279
aI0
aI0
aI0
aI0
aI0
aI0
aI0
aI0
aI0
aI0
aI0
aI0
ag3
(g7
S'\xdd\x1dc\xfb\xbb\x8d\xb5?'
p280
tp281
Rp282
aI0
aI0
aI0
aI0
aI0
aI0
aI0
aI0
aI0
aI0
aI0
aI0
aI0
aI0
aI0
aI0
aI0
ag3
(g7
S'Q\xe8t^\xbaI\xe0?'
p283
tp284
Rp285
aI0
aI0
aI0
aI0
aI0
aI0
aI0
aI0
aI0
aI0
aI0
aI0
aI0
aI0
aI0
aI0
aI0
aI0
aI0
aI0
aI0
aI0
aI0
aI0
ag3
(g7
S'\xc7"\xc6\xec\x8f\xbe\xa9?'
p286
tp287
Rp288
aI0
aI0
aI0
aI0
aI0
aI0
aI0
ag3
(g7
S'y\x8c\\\xcb`\x1b\xc6?'
p289
tp290
Rp291
aI0
aI0
aI0
aI0
ag3
(g7
S'\xa9\xa5\xe8\xa7\x10\xc0\x98?'
p292
tp293
Rp294
asS'assemblage-774-258'
p295
(lp296
I0
aI0
aI0
aI0
ag3
(g7
S'\xfe\x0cj\xf8e\xa4\x92?'
p297
tp298
Rp299
aI0
aI0
aI0
aI0
aI0
aI0
aI0
aI0
aI0
aI0
aI0
aI0
aI0
aI0
aI0
aI0
aI0
ag3
(g7
S'\x97\xcdO\x82}\x1d\x86?'
p300
tp301
Rp302
aI0
aI0
aI0
aI0
aI0
aI0
aI0
aI0
aI0
aI0
aI0
aI0
aI0
aI0
aI0
aI0
ag3
(g7
S'\xc9.V\xf3\xd2R\xd0?'
p303
tp304
Rp305
aI0
ag3
(g7
S'H\xaf\x00\x19\xf6R\x83?'
p306
tp307
Rp308
aI0
aI0
aI0
aI0
aI0
aI0
aI0
aI0
aI0
aI0
ag3
(g7
S'\x03\x96F|\xc7j\x9e?'
p309
tp310
Rp311
aI0
aI0
aI0
aI0
ag3
(g7
S'\xa58\x9c\xebha\xc5?'
p312
tp313
Rp314
aI0
aI0
aI0
aI0
aI0
ag3
(g7
S'\x0cP\n\xe0^t\xdb?'
p315
tp316
Rp317
aI0
aI0
aI0
aI0
aI0
aI0
aI0
aI0
aI0
aI0
aI0
aI0
aI0
aI0
aI0
aI0
aI0
aI0
aI0
aI0
aI0
aI0
aI0
aI0
aI0
aI0
aI0
aI0
aI0
aI0
ag3
(g7
S'\x10\xb4\xfd\xae8\x11\x92?'
p318
tp319
Rp320
ag3
(g7
S'\x19\x84\xea*\x11V\xa6?'
p321
tp322
Rp323
asS'assemblage-460-928'
p324
(lp325
I0
aI0
ag3
(g7
S'o\ry<\x02\x10\xa8?'
p326
tp327
Rp328
aI0
aI0
aI0
aI0
aI0
aI0
aI0
aI0
ag3
(g7
S"'\xb8<=1\xa4\xd8?"
p329
tp330
Rp331
aI0
aI0
ag3
(g7
S'e\x99H8\xcf\x11\x96?'
p332
tp333
Rp334
aI0
aI0
aI0
aI0
aI0
aI0
aI0
aI0
aI0
aI0
aI0
aI0
aI0
aI0
aI0
aI0
aI0
aI0
aI0
aI0
aI0
ag3
(g7
S'\x83\x9f\x15Y\xf6\xc3\xb6?'
p335
tp336
Rp337
aI0
aI0
ag3
(g7
S"\x9d\xe6C'\xb3e\xd3?"
p338
tp339
Rp340
aI0
aI0
aI0
aI0
aI0
aI0
aI0
aI0
aI0
aI0
aI0
aI0
aI0
aI0
aI0
aI0
ag3
(g7
S'%\x0b\xe1VQ\x80\xa4?'
p341
tp342
Rp343
ag3
(g7
S'\xa1hY\xa8\xd3\xe0\xa8?'
p344
tp345
Rp346
aI0
aI0
aI0
aI0
aI0
ag3
(g7
S'\x080\xae\xb9\xc9Z\x91?'
p347
tp348
Rp349
aI0
aI0
aI0
aI0
aI0
aI0
aI0
aI0
aI0
aI0
aI0
aI0
aI0
aI0
aI0
aI0
aI0
aI0
aI0
aI0
aI0
aI0
aI0
aI0
aI0
aI0
aI0
aI0
aI0
aI0
aI0
ag3
(g7
S'\x9dp/\xdb\x1b\xad\x9d?'
p350
tp351
Rp352
asS'assemblage-920-647'
p353
(lp354
I0
aI0
aI0
aI0
aI0
aI0
aI0
aI0
aI0
aI0
aI0
aI0
aI0
aI0
aI0
aI0
aI0
aI0
aI0
aI0
aI0
aI0
aI0
aI0
ag3
(g7
S'\xd7\xcbr\x16\xe9y\xdf?'
p355
tp356
Rp357
aI0
aI0
aI0
aI0
aI0
aI0
aI0
aI0
aI0
aI0
aI0
aI0
aI0
aI0
aI0
aI0
aI0
aI0
aI0
aI0
aI0
ag3
(g7
S'\xd0\xbb\xf1\xa5f\xceu?'
p358
tp359
Rp360
aI0
aI0
aI0
aI0
aI0
aI0
aI0
aI0
aI0
aI0
aI0
aI0
aI0
aI0
aI0
aI0
aI0
aI0
aI0
aI0
aI0
aI0
aI0
aI0
aI0
aI0
aI0
aI0
aI0
aI0
aI0
aI0
ag3
(g7
S'\xec{;H\xffR\xde?'
p361
tp362
Rp363
aI0
aI0
aI0
aI0
aI0
aI0
aI0
aI0
aI0
aI0
aI0
aI0
aI0
aI0
aI0
ag3
(g7
S'TOZ}$\xbc\x93?'
p364
tp365
Rp366
asS'assemblage-860-467'
p367
(lp368
I0
aI0
aI0
aI0
aI0
aI0
aI0
aI0
aI0
aI0
aI0
aI0
aI0
aI0
aI0
aI0
aI0
aI0
aI0
aI0
aI0
aI0
aI0
aI0
aI0
aI0
aI0
aI0
aI0
aI0
aI0
aI0
aI0
aI0
aI0
aI0
aI0
aI0
aI0
ag3
(g7
S'u\x14D\xf81o\x82?'
p369
tp370
Rp371
aI0
aI0
aI0
aI0
aI0
aI0
aI0
aI0
aI0
aI0
aI0
aI0
aI0
ag3
(g7
S'\xa4\xe2$\x86\xd1\x19\xd9?'
p372
tp373
Rp374
aI0
aI0
aI0
aI0
aI0
aI0
aI0
aI0
ag3
(g7
S'\xc2b\xc9k\x1a\x16\x9d?'
p375
tp376
Rp377
aI0
aI0
aI0
aI0
aI0
aI0
aI0
aI0
aI0
aI0
aI0
aI0
aI0
aI0
ag3
(g7
S'\x08\x9be\x98\xfd\x8b\x97?'
p378
tp379
Rp380
aI0
aI0
aI0
aI0
aI0
aI0
ag3
(g7
S'>\xa5\x8d\x17\x1e&\x8a?'
p381
tp382
Rp383
aI0
ag3
(g7
S'K8\xd1\xf8\x9f\x14\xe0?'
p384
tp385
Rp386
aI0
aI0
aI0
aI0
aI0
aI0
aI0
aI0
ag3
(g7
S'\xd9\xba\xe3\x92;\xa5\x91?'
p387
tp388
Rp389
asS'assemblage-464-918'
p390
(lp391
I0
aI0
ag3
(g7
S'\xaf\x9cp\x91G\xd1\xa3?'
p392
tp393
Rp394
aI0
aI0
aI0
aI0
aI0
aI0
aI0
aI0
ag3
(g7
S'\xf8)y\x9d\xa3C\xda?'
p395
tp396
Rp397
aI0
aI0
ag3
(g7
S'\x87mt\x9d\xe1\xca\x96?'
p398
tp399
Rp400
aI0
aI0
aI0
aI0
aI0
aI0
aI0
aI0
aI0
aI0
aI0
aI0
aI0
aI0
aI0
aI0
aI0
aI0
aI0
aI0
aI0
ag3
(g7
S"'\xc7`\x9b\xf1D\xb5?"
p401
tp402
Rp403
aI0
aI0
ag3
(g7
S'\xf7%\x14\xff[>\xd3?'
p404
tp405
Rp406
aI0
aI0
aI0
aI0
aI0
aI0
aI0
aI0
aI0
aI0
aI0
aI0
aI0
aI0
aI0
aI0
ag3
(g7
S'\xdf?\x97\x93\xb9\x07\xab?'
p407
tp408
Rp409
ag3
(g7
S'\xfb/\xb7\xa5i\x0e\xa7?'
p410
tp411
Rp412
aI0
aI0
aI0
aI0
aI0
ag3
(g7
S'O\x19r:z\xc0\x8a?'
p413
tp414
Rp415
aI0
aI0
aI0
aI0
aI0
aI0
aI0
aI0
aI0
aI0
aI0
aI0
aI0
aI0
aI0
aI0
aI0
aI0
aI0
aI0
aI0
aI0
aI0
aI0
aI0
aI0
aI0
aI0
aI0
aI0
aI0
ag3
(g7
S'\xdc\xd8\xd0\x94\xcd_\x8e?'
p416
tp417
Rp418
asS'assemblage-162-850'
p419
(lp420
I0
aI0
ag3
(g7
S'p\x8a\x17-\xd9\xf8\x93?'
p421
tp422
Rp423
aI0
aI0
ag3
(g7
S'\xde\xc0\xbf|\xe3\xb2\xb5?'
p424
tp425
Rp426
aI0
aI0
aI0
aI0
aI0
ag3
(g7
S'\x8c\x81\xa0iq\x91\xc3?'
p427
tp428
Rp429
aI0
aI0
aI0
aI0
aI0
aI0
aI0
aI0
aI0
aI0
aI0
ag3
(g7
S'\x1a\x0ca!#0\xa1?'
p430
tp431
Rp432
aI0
aI0
aI0
aI0
aI0
aI0
aI0
aI0
aI0
aI0
aI0
aI0
aI0
aI0
ag3
(g7
S'\x17&\x05(\xd0\xf6\x91?'
p433
tp434
Rp435
ag3
(g7
S'\xb0\x97T=0\x91\xca?'
p436
tp437
Rp438
aI0
aI0
aI0
aI0
aI0
aI0
aI0
aI0
aI0
aI0
aI0
aI0
aI0
ag3
(g7
S'@\xd1\xb7\x07\xee\x95\xd3?'
p439
tp440
Rp441
aI0
aI0
aI0
aI0
aI0
aI0
aI0
aI0
aI0
aI0
ag3
(g7
S'\xb9^\x1d:\x83P\x9a?'
p442
tp443
Rp444
aI0
aI0
aI0
aI0
aI0
aI0
aI0
aI0
aI0
aI0
aI0
aI0
aI0
aI0
aI0
aI0
aI0
aI0
aI0
aI0
aI0
ag3
(g7
S'\xf5\x83\x03\x868M\xb2?'
p445
tp446
Rp447
aI0
aI0
aI0
aI0
aI0
aI0
aI0
aI0
ag3
(g7
S'\xb5R]\t\xfb\xe4\xad?'
p448
tp449
Rp450
asS'assemblage-930-730'
p451
(lp452
I0
aI0
aI0
aI0
aI0
aI0
aI0
aI0
aI0
aI0
aI0
aI0
aI0
aI0
aI0
aI0
aI0
aI0
aI0
aI0
aI0
aI0
aI0
aI0
aI0
aI0
aI0
aI0
aI0
aI0
aI0
ag3
(g7
S'\x84\xba\xa2\xb13\x1d\x8f?'
p453
tp454
Rp455
aI0
aI0
aI0
aI0
aI0
ag3
(g7
S'!\xd4p\xdeG\xe2\xa6?'
p456
tp457
Rp458
aI0
ag3
(g7
S'\x06r\x84\xb8\x01\x81\xae?'
p459
tp460
Rp461
aI0
aI0
aI0
aI0
aI0
aI0
aI0
aI0
aI0
aI0
aI0
aI0
aI0
ag3
(g7
S'\x8f\xb7A+\xa5\x00\xc7?'
p462
tp463
Rp464
aI0
aI0
aI0
aI0
ag3
(g7
S'\xf5\xf91\xc9\xae\xc6\xb1?'
p465
tp466
Rp467
aI0
aI0
aI0
aI0
aI0
aI0
aI0
aI0
aI0
aI0
aI0
aI0
aI0
aI0
aI0
aI0
aI0
aI0
aI0
aI0
aI0
aI0
aI0
aI0
aI0
aI0
aI0
ag3
(g7
S'\x8d\xee\x91\xe1h\x11\xe2?'
p468
tp469
Rp470
aI0
aI0
aI0
aI0
aI0
aI0
aI0
aI0
ag3
(g7
S'i!\x81\xe0\xe4\xc3\xa9?'
p471
tp472
Rp473
asS'assemblage-949-751'
p474
(lp475
I0
aI0
aI0
aI0
aI0
aI0
aI0
aI0
aI0
aI0
aI0
aI0
aI0
aI0
aI0
aI0
aI0
aI0
aI0
aI0
aI0
aI0
aI0
aI0
aI0
aI0
aI0
aI0
aI0
aI0
aI0
ag3
(g7
S'\x14\xb0\xea\xbb\x8b\x16\x84?'
p476
tp477
Rp478
aI0
aI0
aI0
aI0
aI0
ag3
(g7
S'\x84\xe0X2@\xc0\xa0?'
p479
tp480
Rp481
aI0
ag3
(g7
S'^kx\x10\xad\xd6\xae?'
p482
tp483
Rp484
aI0
aI0
aI0
aI0
aI0
aI0
aI0
aI0
aI0
aI0
aI0
aI0
aI0
ag3
(g7
S'\xfcl\x16\xd2\x06\xab\xca?'
p485
tp486
Rp487
aI0
aI0
aI0
aI0
ag3
(g7
S'}\xf9\x10j\xe0\x0c\xb0?'
p488
tp489
Rp490
aI0
aI0
aI0
aI0
aI0
aI0
aI0
aI0
aI0
aI0
aI0
aI0
aI0
aI0
aI0
aI0
aI0
aI0
aI0
aI0
aI0
aI0
aI0
aI0
aI0
aI0
aI0
ag3
(g7
S'AL8\x81o/\xe2?'
p491
tp492
Rp493
aI0
aI0
aI0
aI0
aI0
aI0
aI0
aI0
ag3
(g7
S':y\xff\xe2\x94F\xa5?'
p494
tp495
Rp496
asS'assemblage-547-686'
p497
(lp498
I0
aI0
aI0
aI0
ag3
(g7
S'\xd5\xac\xb4\x88$)\xb1?'
p499
tp500
Rp501
aI0
aI0
aI0
aI0
aI0
aI0
aI0
aI0
aI0
aI0
aI0
aI0
aI0
aI0
aI0
aI0
aI0
aI0
aI0
ag3
(g7
S'<2V\xd6(\xb9\x99?'
p502
tp503
Rp504
aI0
aI0
aI0
aI0
aI0
aI0
aI0
aI0
aI0
aI0
aI0
aI0
aI0
aI0
aI0
aI0
aI0
aI0
aI0
aI0
aI0
aI0
aI0
aI0
ag3
(g7
S'%\x90\x05\xf1\xf3-\x95?'
p505
tp506
Rp507
aI0
aI0
aI0
aI0
aI0
aI0
aI0
ag3
(g7
S'\x7f\xd4\xc8\x80\x1f\xb4\xcf?'
p508
tp509
Rp510
aI0
aI0
aI0
aI0
aI0
aI0
aI0
aI0
aI0
ag3
(g7
S'g\xb4y\x86d\x0b\xd8?'
p511
tp512
Rp513
aI0
aI0
aI0
aI0
ag3
(g7
S'A\xd0q4\xa6\x1d\xa8?'
p514
tp515
Rp516
aI0
aI0
aI0
aI0
aI0
aI0
ag3
(g7
S'\xec&\xdb[\x86P\x9c?'
p517
tp518
Rp519
aI0
aI0
ag3
(g7
S'"\xf3\xba\xfb\xf4\xfa\xbe?'
p520
tp521
Rp522
aI0
aI0
aI0
aI0
aI0
ag3
(g7
S'd\x1f\xc1NG\xd4\x85?'
p523
tp524
Rp525
aI0
aI0
aI0
aI0
aI0
aI0
ag3
(g7
S'\xf9\x92\x8e\xd7\x9f\xe3\xa1?'
p526
tp527
Rp528
asS'assemblage-332-494'
p529
(lp530
I0
aI0
ag3
(g7
S'\xc7\x15^\x81/\xe6\xae?'
p531
tp532
Rp533
aI0
aI0
aI0
aI0
aI0
aI0
aI0
aI0
ag3
(g7
S'\x94\xa6\xcc\x86\x9b#\xb2?'
p534
tp535
Rp536
aI0
aI0
aI0
aI0
aI0
aI0
aI0
aI0
aI0
aI0
aI0
ag3
(g7
S'\xf6\x9e\xa19L\xbc\x93?'
p537
tp538
Rp539
aI0
aI0
aI0
aI0
aI0
aI0
aI0
aI0
aI0
aI0
aI0
aI0
aI0
aI0
aI0
ag3
(g7
S'R\xf0\xa4VX^\xe4?'
p540
tp541
Rp542
aI0
aI0
aI0
aI0
aI0
aI0
aI0
aI0
aI0
aI0
aI0
aI0
aI0
ag3
(g7
S'\xac8\x8bf)\xa4\xc0?'
p543
tp544
Rp545
aI0
aI0
aI0
aI0
aI0
aI0
aI0
aI0
aI0
aI0
ag3
(g7
S'\x07\x86U\xba\x10`\x96?'
p546
tp547
Rp548
aI0
aI0
aI0
aI0
aI0
aI0
aI0
aI0
aI0
aI0
aI0
aI0
aI0
aI0
aI0
aI0
aI0
aI0
aI0
aI0
aI0
aI0
aI0
aI0
aI0
aI0
aI0
aI0
aI0
aI0
ag3
(g7
S'G\xef\x8f\xf6\x1dD\xa7?'
p549
tp550
Rp551
as.