ccopy_reg
_reconstructor
p0
(cnetworkx.classes.graph
Graph
p1
c__builtin__
object
p2
Ntp3
Rp4
(dp5
S'node'
p6
(dp7
S'assemblage-447-927'
p8
(dp9
S'name'
p10
g8
ssS'assemblage-158-858'
p11
(dp12
g10
g11
ssS'assemblage-717-153'
p13
(dp14
g10
g13
ssS'assemblage-389-812'
p15
(dp16
g10
g15
ssS'assemblage-433-925'
p17
(dp18
g10
g17
ssS'assemblage-837-485'
p19
(dp20
g10
g19
ssS'assemblage-266-233'
p21
(dp22
g10
g21
ssS'assemblage-314-483'
p23
(dp24
g10
g23
ssS'assemblage-919-741'
p25
(dp26
g10
g25
ssS'assemblage-163-872'
p27
(dp28
g10
g27
ssS'assemblage-914-742'
p29
(dp30
g10
g29
ssS'assemblage-949-751'
p31
(dp32
g10
g31
ssS'assemblage-157-857'
p33
(dp34
g10
g33
ssS'assemblage-475-921'
p35
(dp36
g10
g35
ssS'assemblage-765-726'
p37
(dp38
g10
g37
ssS'assemblage-930-730'
p39
(dp40
g10
g39
ssS'assemblage-924-643'
p41
(dp42
g10
g41
ssS'assemblage-987-160'
p43
(dp44
g10
g43
ssS'assemblage-297-490'
p45
(dp46
g10
g45
ssS'assemblage-403-819'
p47
(dp48
g10
g47
ssS'assemblage-773-705'
p49
(dp50
g10
g49
sssS'graph'
p51
(dp52
S'is_directed'
p53
I00
ssS'edge'
p54
(dp55
g8
(dp56
g19
(dp57
S'weight'
p58
S'MMMMMUUMMMMDUMMMMMMUMMMMMMMMMMMMUMMMDMDDMMUMMMMMMMMMMUMMDDMMMMMDMMMMMMMMMMMMMUMMMMMMMMUMMMMMUMMD'
p59
ssg11
(dp60
g58
S'MMMMMUMMMMMUMMMMMMMMMMMMMMMMMMMMMMMMDMDDMMMMMMMUMMMMMUMMDDMMMMMDMMMMMMMMMMUMMMMMMMMMMMMMMMMMMMMM'
p61
ssg13
(dp62
g58
S'MMMMUMMMMMMDMMMMMMMMMUMMUMMMMMMMMMMMDMDDMMMMMMMMMMMMMMMMDUMMMMMDMMMMMMMMMMMMMMMMMMUMMMMMMMMMMUMD'
p63
ssg15
(dp64
g58
S'MMMMMMMMMMMDMMMMMMMMMMMMMMMMMMMMMMMMDMDUMMMMMUMMMMMMMMUMDDMMMMMDMMMMMMMUMMMMMMMMMMMMMMMMMMMMMMMM'
p65
ssg17
(dp66
g58
S'MMMMMMMMMMMDMMMMMUMMUMMMMMMMMMMMMMUMUMDDMMMMMMMMMMMUMUMMDUMMMMMDMMMMUUMMMMMMMMMMMMMMMMMMMMMMMMMD'
p67
ssg27
(dp68
g58
S'MMMMMMMMMMMMMUMMMMMMMMMUMMMMMMMMMMMMDMDDMMMMMMMMMMMMMUMMDDMMMMMDMMMMMMMMMMMMMMMMMMMMMMMMMMMMMMMD'
p69
ssg21
(dp70
g58
S'MMMMMUMMMMMDMMMMMMMMMMMMMMMMMMMMMMMMDMDDMMMMMMMMMMMMMUMMDDMMMMMDUMMMMMMMMMMMMMMMMMMMMMUMMMMMMMMU'
p71
ssg23
(dp72
g58
S'MMMMMUMMMMMUMMMMMMMMMMMMMMMMMMMMMMMMDMDDMMMMMMMUMMMMMUMMDDMMMMMDMMMMMMMMMMUMMMMMMMMMMMMMMMMMMMMU'
p73
ssg25
(dp74
g58
S'MMMMMMMMMMMDMMMMMMMMMMMMMMMMMMMUMMMMDUDDMMMMMMMMMMMMMUMMDDUMMMMDMMMMMMMMMMMMMMMMMMMMMMUMMMMMMMMM'
p75
ssg29
(dp76
g58
S'MMMMMMMMMMMDMMMMMMMMMMMMMMMMMMMMMMMMDMDDMMMMMMMMMMMMMMMMDDMMMMMUMUMMMMMMMMMMUMMMMMMMMMMMMMMMMMMD'
p77
ssg31
(dp78
g58
S'MMMMMMMMMMMDMMMMMMMMMMMMMMMMMMMUMMMMDUDDMMMMMMMMMMMMMUMMDDUMMMMDMMMMMMMMMMMMMMMMMMMMMMUMMMMMMMMD'
p79
ssg33
(dp80
g58
S'MMMMMMMMMMMDMUMMMMMMMMMUMMMMMMMMMMMMDMDDMMMMMMMMMMMMMUMMDDMMMMMDMMMMMMMMMMMMMMMMMMMMMMMMMMMMMMMD'
p81
ssg35
(dp82
g58
S'MMMMMMMMMMMDMMMMMMMMMMMMMMMMMMMMMMMMUMUUMMMMMMMMMMMMMMMMDUMMMMMUMMMMMMMMMMMMMMMMMMMMMMMMMMMMMMMD'
p83
ssg37
(dp84
g58
S'MMMMMMMMUMMDMMMMMMMMMMMMMMMMMMMMMMMMMMDDMMMMMMMMMMMMMMMMDUMMMMMUMUMMMMMMMMMMUMMMMMMMMMMMMMMMMMMD'
p85
ssg39
(dp86
g58
S'MMMMMMMMMMMDMMMMMMMMMMMMMMMMMMMUMMMMDUDDMMMMMMMMMMMMMUMMDDUMMMMDMMMMMMMMMMMMMMMMMMMMMMUMMMMMMMMM'
p87
ssg41
(dp88
g58
S'MMMMMMMMMMMDMMMMMMMMMMMMUMMMMMMMMMMMDMDDMMMMMMMMMMMMMMMMDDMMMMMDMMMMMMMMMMMMMMMUMMMMMMMMMMMMMMMD'
p89
ssg43
(dp90
g58
S'MMMMUMMMMMMDMMMMMMMMMUMMUMMMMMMMMMMMDMDDMMMMMMMMMMMMMMMMDUMMMMMDMMMMMMMMMMMMMMMMMMUMMMMMMMMMMUMD'
p91
ssg45
(dp92
g58
S'MMMMMMMMMMMDMUMMMMMMMMMUMMMMMMMMMMMMDMDDMMMMMMMMMMMMMUMMDDMMMMMDMMMMMMMMMMMMMMMMMMMMMMMMMMMMMMMD'
p93
ssg47
(dp94
g58
S'MMMMMMMMMMMDMMMMMMMMMMMMMMMMMMMMMMMMDMDUMMMMMUMMMMMMMMUMDDMMMMMDMMMMMMMUMMMMMMMMMMMMMMMMMMMMMMMD'
p95
ssg49
(dp96
g58
S'MMMMMMMMMMMDMMMMMUMMMMMMMMMMMMMMMMUMUMDDMMMMMMMMMMMUMUMMDUMMMMMDMMMMMUMMMMMMMMMMMMMMMMMMMMMMMMMM'
p97
sssg11
(dp98
g8
g60
sg45
(dp99
g58
S'MMMMMDMMMMMDMUMMMMMMMMMUMMMMMMMMMMMMMMUMMMMMMMMDMMMMMUMMMMMMMMMUMMMMMMMMMMDMMMMMMMMMMMMMMMMMMMMD'
p100
ssg13
(dp101
g58
S'MMMMUDMMMMMDMMMMMMMMMUMMUMMMMMMMMMMMMMMDMMMMMMMDMMMMMDMMMUMMMMMMMMMMMMMMMMDMMMMMMMUMMMMMMMMMMUMD'
p102
ssg15
(dp103
g58
S'MMMMMDMMMMMDMMMMMMMMMMMMMMMMMMMMMMMMMMMUMMMMMUMDMMMMMDUMMMMMMMMMMMMMMMMUMMDMMMMMMMMMMMMMMMMMMMMM'
p104
ssg17
(dp105
g58
S'MMMMMDMMMMMDMMMMMUMMUMMMMMMMMMMMMMUMUMMUMMMMMMMDMMMUMUMMMUMMMMMUMMMMUUMMMMDMMMMMMMMMMMMMMMMMMMMD'
p106
ssg19
(dp107
g58
S'MMMMMDUMMMMDUMMMMMMUMMMMMMMMMMMMUMMMMMMUMMUMMMMDMMMMMUMMMMMMMMMMMMMMMMMMMMDMMUMMMMMMMMUMMMMMUMMD'
p108
ssg21
(dp109
g58
S'MMMMMDMMMMMDMMMMMMMMMMMMMMMMMMMMMMMMMMMDMMMMMMMDMMMMMUMMMMMMMMMMUMMMMMMMMMDMMMMMMMMMMMUMMMMMMMMU'
p110
ssg23
(dp111
g58
S'MMMMMMMMMMMMMMMMMMMMMMMMMMMMMMMMMMMMMMMMMMMMMMMMMMMMMMMMMMMMMMMMMMMMMMMMMMDMMMMMMMMMMMMMMMMMMMMU'
p112
ssg25
(dp113
g58
S'MMMMMDMMMMMDMMMMMMMMMMMMMMMMMMMUMMMMMUMUMMMMMMMDMMMMMUMMMMUMMMMMMMMMMMMMMMDMMMMMMMMMMMUMMMMMMMMM'
p114
ssg27
(dp115
g58
S'MMMMMDMMMMMDMUMMMMMMMMMUMMMMMMMMMMMMMMUUMMMMMMMDMMMMMUMMMMMMMMMUMMMMMMMMMMDMMMMMMMMMMMMMMMMMMMMD'
p116
ssg29
(dp117
g58
S'MMMMMUMMMMMUMMMMMMMMMMMMMMMMMMMMMMMMMMMDMMMMMMMUMMMMMUMMMDMMMMMDMDMMMMMMMMUMDMMMMMMMMMMMMMMMMMMU'
p118
ssg31
(dp119
g58
S'MMMMMDMMMMMDMMMMMMMMMMMMMMMMMMMUMMMMMUMUMMMMMMMDMMMMMUMMMMUMMMMMMMMMMMMMMMDMMMMMMMMMMMUMMMMMMMMD'
p120
ssg33
(dp121
g58
S'MMMMMDMMMMMDMUMMMMMMMMMUMMMMMMMMMMMMMMUDMMMMMMMDMMMMMUMMMMMMMMMUMMMMMMMMMMDMMMMMMMMMMMMMMMMMMMMD'
p122
ssg35
(dp123
g58
S'MMMMMDMMMMMDMMMMMMMMMMMMMMMMMMMMMMMMUMUUMMMMMMMDMMMMMDMMUUMMMMMUMMMMMMMMMMDMMMMMMMMMMMMMMMMMMMMD'
p124
ssg37
(dp125
g58
S'MMMMMDMMUMMDMMMMMMMMMMMMMMMMMMMMMMMMUMMUMMMMMMMDMMMMMDMMMUMMMMMUMUMMMMMMMMDMUMMMMMMMMMMMMMMMMMMD'
p126
ssg39
(dp127
g58
S'MMMMMDMMMMMDMMMMMMMMMMMMMMMMMMMUMMMMMUMUMMMMMMMDMMMMMUMMMMUMMMMMMMMMMMMMMMDMMMMMMMMMMMUMMMMMMMMU'
p128
ssg41
(dp129
g58
S'MMMMMDMMMMMDMMMMMMMMMMMMUMMMMMMMMMMMMMMDMMMMMMMDMMMMMDMMMMMMMMMMMMMMMMMMMMDMMMMUMMMMMMMMMMMMMMMD'
p130
ssg43
(dp131
g58
S'MMMMUDMMMMMDMMMMMMMMMUMMUMMMMMMMMMMMMMMMMMMMMMMDMMMMMDMMMUMMMMMMMMMMMMMMMMDMMMMMMMUMMMMMMMMMMUMD'
p132
ssg47
(dp133
g58
S'MMMMMDMMMMMDMMMMMMMMMMMMMMMMMMMMMMMMMMMUMMMMMUMDMMMMMDUMMMMMMMMMMMMMMMMUMMDMMMMMMMMMMMMMMMMMMMMD'
p134
ssg49
(dp135
g58
S'MMMMMDMMMMMDMMMMMUMMMMMMMMMMMMMMMMUMUMMUMMMMMMMDMMMUMUMMMUMMMMMUMMMMMUMMMMDMMMMMMMMMMMMMMMMMMMMM'
p136
sssg13
(dp137
g8
g62
sg11
g101
sg41
(dp138
g58
S'MMMMDMMMMMMMMMMMMMMMMDMMUMMMMMMMMMMMMMMDMMMMMMMMMMMMMMMMMDMMMMMMMMMMMMMMMMMMMMMUMMDMMMMMMMMMMDMU'
p139
ssg15
(dp140
g58
S'MMMMDMMMMMMMMMMMMMMMMDMMDMMMMMMMMMMMMMMUMMMMMUMMMMMMMMUMMDMMMMMMMMMMMMMUMMMMMMMMMMDMMMMMMMMMMDMU'
p141
ssg17
(dp142
g58
S'MMMMDMMMMMMMMMMMMUMMUDMMDMMMMMMMMMUMUMMUMMMMMMMMMMMUMUMMMDMMMMMUMMMMUUMMMMMMMMMMMMDMMMMMMMMMMDMD'
p143
ssg19
(dp144
g58
S'MMMMDUUMMMMMUMMMMMMUMDMMDMMMMMMMUMMMMMMUMMUMMMMMMMMMMUMMMDMMMMMMMMMMMMMMMMMMMUMMMMDMMMUMMMMMUDMU'
p145
ssg21
(dp146
g58
S'MMMMDUMMMMMUMMMMMMMMMDMMDMMMMMMMMMMMMMMMMMMMMMMMMMMMMUMMMDMMMMMMUMMMMMMMMMMMMMMMMMDMMMUMMMMMMDMU'
p147
ssg23
(dp148
g58
S'MMMMDUMMMMMUMMMMMMMMMDMMDMMMMMMMMMMMMMMUMMMMMMMUMMMMMUMMMDMMMMMMMMMMMMMMMMUMMMMMMMDMMMMMMMMMMDMU'
p149
ssg25
(dp150
g58
S'MMMMDMMMMMMMMMMMMMMMMDMMDMMMMMMUMMMMMUMUMMMMMMMMMMMMMUMMMDUMMMMMMMMMMMMMMMMMMMMMMMDMMMUMMMMMMDMU'
p151
ssg27
(dp152
g58
S'MMMMDMMMMMMUMUMMMMMMMDMUDMMMMMMMMMMMMMUUMMMMMMMMMMMMMUMMMDMMMMMUMMMMMMMMMMMMMMMMMMDMMMMMMMMMMDMU'
p153
ssg29
(dp154
g58
S'MMMMUMMMMMMDMMMMMMMMMUMMUMMMMMMMMMMMMMMDMMMMMMMMMMMMMMMMMUMMMMMDMDMMMMMMMMMMDMMMMMUMMMMMMMMMMUMM'
p155
ssg31
(dp156
g58
S'MMMMDMMMMMMMMMMMMMMMMDMMDMMMMMMUMMMMMUMUMMMMMMMMMMMMMUMMMDUMMMMMMMMMMMMMMMMMMMMMMMDMMMUMMMMMMDMU'
p157
ssg33
(dp158
g58
S'MMMMDMMMMMMUMUMMMMMMMDMUDMMMMMMMMMMMMMUUMMMMMMMMMMMMMUMMMDMMMMMUMMMMMMMMMMMMMMMMMMDMMMMMMMMMMDMD'
p159
ssg35
(dp160
g58
S'MMMMDMMMMMMUMMMMMMMMMDMMDMMMMMMMMMMMUMUUMMMMMMMMMMMMMMMMUDMMMMMUMMMMMMMMMMMMMMMMMMDMMMMMMMMMMDMU'
p161
ssg37
(dp162
g58
S'MMMMDMMMUMMUMMMMMMMMMDMMDMMMMMMMMMMMUMMUMMMMMMMMMMMMMMMMMDMMMMMUMUMMMMMMMMMMUMMMMMDMMMMMMMMMMDMU'
p163
ssg39
(dp164
g58
S'MMMMDMMMMMMMMMMMMMMMMDMMDMMMMMMUMMMMMUMUMMMMMMMMMMMMMUMMMDUMMMMMMMMMMMMMMMMMMMMMMMDMMMUMMMMMMDMU'
p165
ssg43
(dp166
g58
S'MMMMDMMMMMMMMMMMMMMMMUMMUMMMMMMMMMMMMMMUMMMMMMMMMMMMMMMMMDMMMMMMMMMMMMMMMMMMMMMMMMMMMMMMMMMMMDMD'
p167
ssg45
(dp168
g58
S'MMMMDMMMMMMUMUMMMMMMMDMUDMMMMMMMMMMMMMUUMMMMMMMMMMMMMUMMMDMMMMMUMMMMMMMMMMMMMMMMMMDMMMMMMMMMMDMD'
p169
ssg47
(dp170
g58
S'MMMMDMMMMMMMMMMMMMMMMDMMDMMMMMMMMMMMMMMUMMMMMUMMMMMMMMUMMDMMMMMMMMMMMMMUMMMMMMMMMMDMMMMMMMMMMDMU'
p171
ssg49
(dp172
g58
S'MMMMDMMMMMMMMMMMMUMMMDMMDMMMMMMMMMUMUMMUMMMMMMMMMMMUMUMMMDMMMMMUMMMMMUMMMMMMMMMMMMDMMMMMMMMMMDMU'
p173
sssg15
(dp174
g8
g64
sg11
g103
sg13
g140
sg23
(dp175
g58
S'MMMMMUMMMMMUMMMMMMMMMMMMMMMMMMMMMMMMMMMDMMMMMDMUMMMMMUDMMMMMMMMMMMMMMMMDMMUMMMMMMMMMMMMMMMMMMMMU'
p176
ssg17
(dp177
g58
S'MMMMMMMMMMMMMMMMMUMMUMMMMMMMMMMMMMUMUMMDMMMMMDMMMMMUMUDMMUMMMMMUMMMMUUMDMMMMMMMMMMMMMMMMMMMMMMMD'
p178
ssg19
(dp179
g58
S'MMMMMUUMMMMMUMMMMMMUMMMMMMMMMMMMUMMMMMMDMMUMMDMMMMMMMUDMMMMMMMMMMMMMMMMDMMMMMUMMMMMMMMUMMMMMUMMD'
p180
ssg21
(dp181
g58
S'MMMMMUMMMMMUMMMMMMMMMMMMMMMMMMMMMMMMMMMDMMMMMDMMMMMMMUDMMMMMMMMMUMMMMMMDMMMMMMMMMMMMMMUMMMMMMMMU'
p182
ssg25
(dp183
g58
S'MMMMMMMMMMMMMMMMMMMMMMMMMMMMMMMUMMMMMUMDMMMMMDMMMMMMMUDMMMUMMMMMMMMMMMMDMMMMMMMMMMMMMMUMMMMMMMMM'
p184
ssg27
(dp185
g58
S'MMMMMMMMMMMUMUMMMMMMMMMUMMMMMMMMMMMMMMUDMMMMMDMMMMMMMUDMMMMMMMMUMMMMMMMDMMMMMMMMMMMMMMMMMMMMMMMD'
p186
ssg29
(dp187
g58
S'MMMMMMMMMMMDMMMMMMMMMMMMMMMMMMMMMMMMMMMUMMMMMUMMMMMMMMUMMDMMMMMDMDMMMMMUMMMMDMMMMMMMMMMMMMMMMMMU'
p188
ssg31
(dp189
g58
S'MMMMMMMMMMMMMMMMMMMMMMMMMMMMMMMUMMMMMUMDMMMMMDMMMMMMMUDMMMUMMMMMMMMMMMMDMMMMMMMMMMMMMMUMMMMMMMMD'
p190
ssg33
(dp191
g58
S'MMMMMMMMMMMUMUMMMMMMMMMUMMMMMMMMMMMMMMUDMMMMMDMMMMMMMUDMMMMMMMMUMMMMMMMDMMMMMMMMMMMMMMMMMMMMMMMD'
p192
ssg35
(dp193
g58
S'MMMMMMMMMMMUMMMMMMMMMMMMMMMMMMMMMMMMUMUDMMMMMDMMMMMMMMDMUUMMMMMUMMMMMMMDMMMMMMMMMMMMMMMMMMMMMMMD'
p194
ssg37
(dp195
g58
S'MMMMMMMMUMMUMMMMMMMMMMMMMMMMMMMMMMMMUMMDMMMMMDMMMMMMMMDMMUMMMMMUMUMMMMMDMMMMUMMMMMMMMMMMMMMMMMMD'
p196
ssg39
(dp197
g58
S'MMMMMMMMMMMMMMMMMMMMMMMMMMMMMMMUMMMMMUMDMMMMMDMMMMMMMUDMMMUMMMMMMMMMMMMDMMMMMMMMMMMMMMUMMMMMMMMU'
p198
ssg41
(dp199
g58
S'MMMMMMMMMMMMMMMMMMMMMMMMUMMMMMMMMMMMMMMDMMMMMDMMMMMMMMDMMMMMMMMMMMMMMMMDMMMMMMMUMMMMMMMMMMMMMMMM'
p200
ssg43
(dp201
g58
S'MMMMUMMMMMMMMMMMMMMMMUMMUMMMMMMMMMMMMMMDMMMMMDMMMMMMMMDMMUMMMMMMMMMMMMMDMMMMMMMMMMUMMMMMMMMMMUMD'
p202
ssg45
(dp203
g58
S'MMMMMMMMMMMUMUMMMMMMMMMUMMMMMMMMMMMMMMUDMMMMMDMMMMMMMUDMMMMMMMMUMMMMMMMDMMMMMMMMMMMMMMMMMMMMMMMD'
p204
ssg47
(dp205
g58
S'MMMMMMMMMMMMMMMMMMMMMMMMMMMMMMMMMMMMMMMMMMMMMMMMMMMMMMDMMMMMMMMMMMMMMMMUMMMMMMMMMMMMMMMMMMMMMMMD'
p206
ssg49
(dp207
g58
S'MMMMMMMMMMMMMMMMMUMMMMMMMMMMMMMMMMUMUMMDMMMMMDMMMMMUMUDMMUMMMMMUMMMMMUMDMMMMMMMMMMMMMMMMMMMMMMMM'
p208
sssg17
(dp209
g8
g66
sg11
g105
sg13
g142
sg15
g177
sg19
(dp210
g58
S'MMMMMUUMMMMMUMMMMDMUDMMMMMMMMMMMUMDMDMMDMMUMMMMMMMMDMUMMMDMMMMMDMMMMDDMMMMMMMUMMMMMMMMUMMMMMUMMU'
p211
ssg21
(dp212
g58
S'MMMMMUMMMMMUMMMMMDMMDMMMMMMMMMMMMMDMDMMDMMMMMMMMMMMDMUMMMDMMMMMDUMMMDDMMMMMMMMMMMMMMMMUMMMMMMMMU'
p213
ssg23
(dp214
g58
S'MMMMMUMMMMMUMMMMMDMMDMMMMMMMMMMMMMDMDMMDMMMMMMMUMMMDMDMMMDMMMMMDMMMMDDMMMMUMMMMMMMMMMMMMMMMMMMMU'
p215
ssg25
(dp216
g58
S'MMMMMMMMMMMMMMMMMDMMDMMMMMMMMMMUMMDMDUMDMMMMMMMMMMMDMUMMMDUMMMMDMMMMDDMMMMMMMMMMMMMMMMUMMMMMMMMU'
p217
ssg27
(dp218
g58
S'MMMMMMMMMMMUMUMMMDMMDMMUMMMMMMMMMMDMDMUDMMMMMMMMMMMDMUMMMDMMMMMDMMMMDDMMMMMMMMMMMMMMMMMMMMMMMMMU'
p219
ssg29
(dp220
g58
S'MMMMMMMMMMMDMMMMMUMMUMMMMMMMMMMMMMUMUMMUMMMMMMMMMMMUMUMMMUMMMMMDMDMMUUMMMMMMDMMMMMMMMMMMMMMMMMMD'
p221
ssg31
(dp222
g58
S'MMMMMMMMMMMMMMMMMDMMDMMMMMMMMMMUMMDMDUMDMMMMMMMMMMMDMUMMMDUMMMMDMMMMDDMMMMMMMMMMMMMMMMUMMMMMMMMU'
p223
ssg33
(dp224
g58
S'MMMMMMMMMMMUMUMMMDMMDMMUMMMMMMMMMMDMDMUDMMMMMMMMMMMDMUMMMDMMMMMDMMMMDDMMMMMMMMMMMMMMMMMMMMMMMMMM'
p225
ssg35
(dp226
g58
S'MMMMMMMMMMMUMMMMMDMMDMMMMMMMMMMMMMDMDMUUMMMMMMMMMMMDMDMMUDMMMMMUMMMMDDMMMMMMMMMMMMMMMMMMMMMMMMMU'
p227
ssg37
(dp228
g58
S'MMMMMMMMUMMUMMMMMDMMDMMMMMMMMMMMMMDMDMMDMMMMMMMMMMMDMDMMMDMMMMMUMUMMDDMMMMMMUMMMMMMMMMMMMMMMMMMU'
p229
ssg39
(dp230
g58
S'MMMMMMMMMMMMMMMMMDMMDMMMMMMMMMMUMMDMDUMDMMMMMMMMMMMDMDMMMDUMMMMDMMMMDDMMMMMMMMMMMMMMMMUMMMMMMMMU'
p231
ssg41
(dp232
g58
S'MMMMMMMMMMMMMMMMMDMMDMMMUMMMMMMMMMDMDMMDMMMMMMMMMMMDMDMMMDMMMMMDMMMMDDMMMMMMMMMUMMMMMMMMMMMMMMMU'
p233
ssg43
(dp234
g58
S'MMMMUMMMMMMMMMMMMDMMDUMMUMMMMMMMMMDMDMMDMMMMMMMMMMMDMDMMMUMMMMMDMMMMDDMMMMMMMMMMMMUMMMMMMMMMMUMD'
p235
ssg45
(dp236
g58
S'MMMMMMMMMMMUMUMMMDMMDMMUMMMMMMMMMMDMDMUDMMMMMMMMMMMDMUMMMDMMMMMDMMMMDDMMMMMMMMMMMMMMMMMMMMMMMMMM'
p237
ssg47
(dp238
g58
S'MMMMMMMMMMMMMMMMMDMMDMMMMMMMMMMMMMDMDMMUMMMMMUMMMMMDMDUMMDMMMMMDMMMMDDMUMMMMMMMMMMMMMMMMMMMMMMMU'
p239
ssg49
(dp240
g58
S'MMMMMMMMMMMMMMMMMDMMDMMMMMMMMMMMMMUMDMMDMMMMMMMMMMMUMMMMMDMMMMMUMMMMDUMMMMMMMMMMMMMMMMMMMMMMMMMU'
p241
sssg19
(dp242
g8
g57
sg11
g107
sg13
g144
sg15
g179
sg17
g210
sg27
(dp243
g58
S'MMMMMDDMMMMUDUMMMMMDMMMUMMMMMMMMDMMMMMUDMMDMMMMMMMMMMUMMMMMMMMMUMMMMMMMMMMMMMDMMMMMMMMDMMMMMDMMU'
p244
ssg21
(dp245
g58
S'MMMMMDDMMMMUDMMMMMMDMMMMMMMMMMMMDMMMMMMDMMDMMMMMMMMMMUMMMMMMMMMMUMMMMMMMMMMMMDMMMMMMMMUMMMMMDMMU'
p246
ssg23
(dp247
g58
S'MMMMMUDMMMMUDMMMMMMDMMMMMMMMMMMMDMMMMMMDMMDMMMMUMMMMMDMMMMMMMMMMMMMMMMMMMMUMMDMMMMMMMMDMMMMMDMMU'
p248
ssg25
(dp249
g58
S'MMMMMDDMMMMMDMMMMMMDMMMMMMMMMMMUDMMMMUMUMMDMMMMMMMMMMDMMMMUMMMMMMMMMMMMMMMMMMDMMMMMMMMUMMMMMDMMU'
p250
ssg29
(dp251
g58
S'MMMMMUUMMMMDUMMMMMMUMMMMMMMMMMMMUMMMMMMDMMUMMMMMMMMMMUMMMDMMMMMDMDMMMMMMMMMMDUMMMMMMMMUMMMMMUMMU'
p252
ssg31
(dp253
g58
S'MMMMMDDMMMMMDMMMMMMDMMMMMMMMMMMUDMMMMUMDMMDMMMMMMMMMMDMMMMUMMMMMMMMMMMMMMMMMMDMMMMMMMMUMMMMMDMMU'
p254
ssg33
(dp255
g58
S'MMMMMDDMMMMUDUMMMMMDMMMUMMMMMMMMDMMMMMUDMMDMMMMMMMMMMUMMMMMMMMMUMMMMMMMMMMMMMDMMMMMMMMDMMMMMDMMD'
p256
ssg35
(dp257
g58
S'MMMMMDDMMMMUDMMMMMMDMMMMMMMMMMMMDMMMUMUUMMDMMMMMMMMMMDMMUUMMMMMUMMMMMMMMMMMMMDMMMMMMMMDMMMMMDMMM'
p258
ssg37
(dp259
g58
S'MMMMMDDMUMMUDMMMMMMDMMMMMMMMMMMMDMMMUMMUMMDMMMMMMMMMMDMMMUMMMMMUMUMMMMMMMMMMUDMMMMMMMMDMMMMMDMMM'
p260
ssg39
(dp261
g58
S'MMMMMDDMMMMMDMMMMMMDMMMMMMMMMMMUDMMMMUMDMMDMMMMMMMMMMDMMMMUMMMMMMMMMMMMMMMMMMDMMMMMMMMUMMMMMDMMU'
p262
ssg41
(dp263
g58
S'MMMMMDDMMMMMDMMMMMMDMMMMUMMMMMMMDMMMMMMDMMDMMMMMMMMMMDMMMMMMMMMMMMMMMMMMMMMMMDMUMMMMMMDMMMMMDMMU'
p264
ssg43
(dp265
g58
S'MMMMUDDMMMMMDMMMMMMDMUMMUMMMMMMMDMMMMMMDMMDMMMMMMMMMMDMMMUMMMMMMMMMMMMMMMMMMMDMMMMUMMMDMMMMMDUMD'
p266
ssg45
(dp267
g58
S'MMMMMDDMMMMUDUMMMMMDMMMUMMMMMMMMDMMMMMUDMMDMMMMMMMMMMUMMMMMMMMMUMMMMMMMMMMMMMDMMMMMMMMDMMMMMDMMD'
p268
ssg47
(dp269
g58
S'MMMMMDDMMMMMDMMMMMMDMMMMMMMMMMMMDMMMMMMUMMDMMUMMMMMMMDUMMMMMMMMMMMMMMMMUMMMMMDMMMMMMMMDMMMMMDMMM'
p270
ssg49
(dp271
g58
S'MMMMMDDMMMMMDMMMMUMDMMMMMMMMMMMMDMUMUMMUMMDMMMMMMMMUMDMMMUMMMMMUMMMMMUMMMMMMMDMMMMMMMMDMMMMMDMMU'
p272
sssg21
(dp273
g8
g70
sg11
g109
sg13
g146
sg15
g181
sg17
g212
sg19
g245
sg23
(dp274
g58
S'MMMMMUMMMMMUMMMMMMMMMMMMMMMMMMMMMMMMMMMUMMMMMMMUMMMMMDMMMMMMMMMMDMMMMMMMMMUMMMMMMMMMMMDMMMMMMMMD'
p275
ssg25
(dp276
g58
S'MMMMMDMMMMMDMMMMMMMMMMMMMMMMMMMUMMMMMUMUMMMMMMMMMMMMMDMMMMUMMMMMDMMMMMMMMMMMMMMMMMMMMMUMMMMMMMMD'
p277
ssg27
(dp278
g58
S'MMMMMDMMMMMUMUMMMMMMMMMUMMMMMMMMMMMMMMUUMMMMMMMMMMMMMUMMMMMMMMMUDMMMMMMMMMMMMMMMMMMMMMDMMMMMMMMD'
p279
ssg29
(dp280
g58
S'MMMMMUMMMMMDMMMMMMMMMMMMMMMMMMMMMMMMMMMDMMMMMMMMMMMMMUMMMDMMMMMDUDMMMMMMMMMMDMMMMMMMMMUMMMMMMMMU'
p281
ssg31
(dp282
g58
S'MMMMMDMMMMMDMMMMMMMMMMMMMMMMMMMUMMMMMUMUMMMMMMMMMMMMMDMMMMUMMMMMDMMMMMMMMMMMMMMMMMMMMMUMMMMMMMMD'
p283
ssg33
(dp284
g58
S'MMMMMDMMMMMUMUMMMMMMMMMUMMMMMMMMMMMMMMUUMMMMMMMMMMMMMUMMMMMMMMMUDMMMMMMMMMMMMMMMMMMMMMDMMMMMMMMD'
p285
ssg35
(dp286
g58
S'MMMMMDMMMMMUMMMMMMMMMMMMMMMMMMMMMMMMUMUUMMMMMMMMMMMMMDMMUUMMMMMUDMMMMMMMMMMMMMMMMMMMMMDMMMMMMMMD'
p287
ssg37
(dp288
g58
S'MMMMMDMMUMMUMMMMMMMMMMMMMMMMMMMMMMMMUMMUMMMMMMMMMMMMMDMMMUMMMMMUDUMMMMMMMMMMUMMMMMMMMMDMMMMMMMMD'
p289
ssg39
(dp290
g58
S'MMMMMDMMMMMDMMMMMMMMMMMMMMMMMMMUMMMMMUMUMMMMMMMMMMMMMDMMMMUMMMMMDMMMMMMMMMMMMMMMMMMMMMUMMMMMMMMD'
p291
ssg41
(dp292
g58
S'MMMMMDMMMMMDMMMMMMMMMMMMUMMMMMMMMMMMMMMDMMMMMMMMMMMMMDMMMMMMMMMMDMMMMMMMMMMMMMMUMMMMMMDMMMMMMMMD'
p293
ssg43
(dp294
g58
S'MMMMUDMMMMMDMMMMMMMMMUMMUMMMMMMMMMMMMMMUMMMMMMMMMMMMMDMMMUMMMMMMDMMMMMMMMMMMMMMMMMUMMMDMMMMMMUMD'
p295
ssg45
(dp296
g58
S'MMMMMDMMMMMUMUMMMMMMMMMUMMMMMMMMMMMMMMUUMMMMMMMMMMMMMUMMMMMMMMMUDMMMMMMMMMMMMMMMMMMMMMDMMMMMMMMD'
p297
ssg47
(dp298
g58
S'MMMMMDMMMMMDMMMMMMMMMMMMMMMMMMMMMMMMMMMUMMMMMUMMMMMMMDUMMMMMMMMMDMMMMMMUMMMMMMMMMMMMMMDMMMMMMMMD'
p299
ssg49
(dp300
g58
S'MMMMMDMMMMMDMMMMMUMMMMMMMMMMMMMMMMUMUMMUMMMMMMMMMMMUMDMMMUMMMMMUDMMMMUMMMMMMMMMMMMMMMMDMMMMMMMMD'
p301
sssg23
(dp302
g8
g72
sg11
g111
sg13
g148
sg15
g175
sg17
g214
sg19
g247
sg21
g274
sg25
(dp303
g58
S'MMMMMUMMMMMUMMMMMMMMMMMMMMMMMMMDMMMMMDMDMMMMMMMUMMMMMDMMMMDMMMMMMMMMMMMMMMUMMMMMMMMMMMDMMMMMMMMU'
p304
ssg27
(dp305
g58
S'MMMMMUMMMMMUMDMMMMMMMMMDMMMMMMMMMMMMMMDDMMMMMMMUMMMMMDMMMMMMMMMDMMMMMMMMMMUMMMMMMMMMMMMMMMMMMMMU'
p306
ssg29
(dp307
g58
S'MMMMMUMMMMMUMMMMMMMMMMMMMMMMMMMMMMMMMMMDMMMMMMMUMMMMMUMMMDMMMMMDMDMMMMMMMMUMDMMMMMMMMMMMMMMMMMMU'
p308
ssg31
(dp309
g58
S'MMMMMUMMMMMUMMMMMMMMMMMMMMMMMMMDMMMMMDMMMMMMMMMUMMMMMDMMMMDMMMMMMMMMMMMMMMUMMMMMMMMMMMDMMMMMMMMU'
p310
ssg33
(dp311
g58
S'MMMMMUMMMMMUMDMMMMMMMMMDMMMMMMMMMMMMMMDUMMMMMMMUMMMMMDMMMMMMMMMDMMMMMMMMMMUMMMMMMMMMMMMMMMMMMMMU'
p312
ssg35
(dp313
g58
S'MMMMMUMMMMMUMMMMMMMMMMMMMMMMMMMMMMMMDMDDMMMMMMMUMMMMMUMMDDMMMMMDMMMMMMMMMMUMMMMMMMMMMMMMMMMMMMMU'
p314
ssg37
(dp315
g58
S'MMMMMUMMDMMUMMMMMMMMMMMMMMMMMMMMMMMMDMMDMMMMMMMUMMMMMUMMMDMMMMMDMDMMMMMMMMUMDMMMMMMMMMMMMMMMMMMU'
p316
ssg39
(dp317
g58
S'MMMMMUMMMMMUMMMMMMMMMMMMMMMMMMMDMMMMMDMMMMMMMMMUMMMMMDMMMMDMMMMMMMMMMMMMMMUMMMMMMMMMMMDMMMMMMMMU'
p318
ssg41
(dp319
g58
S'MMMMMUMMMMMUMMMMMMMMMMMMDMMMMMMMMMMMMMMUMMMMMMMUMMMMMUMMMMMMMMMMMMMMMMMMMMUMMMMDMMMMMMMMMMMMMMMU'
p320
ssg43
(dp321
g58
S'MMMMDUMMMMMUMMMMMMMMMDMMDMMMMMMMMMMMMMMUMMMMMMMUMMMMMUMMMDMMMMMMMMMMMMMMMMUMMMMMMMDMMMMMMMMMMDMU'
p322
ssg45
(dp323
g58
S'MMMMMUMMMMMUMDMMMMMMMMMDMMMMMMMMMMMMMMDMMMMMMMMUMMMMMDMMMMMMMMMDMMMMMMMMMMUMMMMMMMMMMMMMMMMMMMMU'
p324
ssg47
(dp325
g58
S'MMMMMUMMMMMUMMMMMMMMMMMMMMMMMMMMMMMMMMMDMMMMMDMUMMMMMUDMMMMMMMMMMMMMMMMDMMUMMMMMMMMMMMMMMMMMMMMU'
p326
ssg49
(dp327
g58
S'MMMMMUMMMMMUMMMMMDMMMMMMMMMMMMMMMMDMDMMDMMMMMMMUMMMDMDMMMDMMMMMDMMMMMDMMMMUMMMMMMMMMMMMMMMMMMMMU'
p328
sssg25
(dp329
g8
g74
sg11
g113
sg13
g150
sg15
g183
sg17
g216
sg19
g249
sg21
g276
sg23
g303
sg27
(dp330
g58
S'MMMMMMMMMMMUMUMMMMMMMMMUMMMMMMMDMMMMMDUDMMMMMMMMMMMMMUMMMMDMMMMUMMMMMMMMMMMMMMMMMMMMMMDMMMMMMMMD'
p331
ssg29
(dp332
g58
S'MMMMMMMMMMMDMMMMMMMMMMMMMMMMMMMUMMMMMUMDMMMMMMMMMMMMMUMMMDUMMMMDMDMMMMMMMMMMDMMMMMMMMMUMMMMMMMMU'
p333
ssg31
(dp334
g58
S'MMMMMMMMMMMMMMMMMMMMMMMMMMMMMMMUMMMMMDMDMMMMMMMMMMMMMMMMMMUMMMMMMMMMMMMMMMMMMMMMMMMMMMUMMMMMMMMD'
p335
ssg33
(dp336
g58
S'MMMMMMMMMMMDMDMMMMMMMMMDMMMMMMMUMMMMMUDUMMMMMMMMMMMMMDMMMMUMMMMDMMMMMMMMMMMMMMMMMMMMMMUMMMMMMMMU'
p337
ssg35
(dp338
g58
S'MMMMMMMMMMMUMMMMMMMMMMMMMMMMMMMDMMMMUDUUMMMMMMMMMMMMMDMMUUDMMMMUMMMMMMMMMMMMMMMMMMMMMMDMMMMMMMMD'
p339
ssg37
(dp340
g58
S'MMMMMMMMUMMUMMMMMMMMMMMMMMMMMMMDMMMMUDMUMMMMMMMMMMMMMDMMMUDMMMMUMUMMMMMMMMMMUMMMMMMMMMDMMMMMMMMD'
p341
ssg39
(dp342
g58
S'MMMMMMMMMMMMMMMMMMMMMMMMMMMMMMMUMMMMMMMDMMMMMMMMMMMMMDMMMMUMMMMMMMMMMMMMMMMMMMMMMMMMMMUMMMMMMMMU'
p343
ssg41
(dp344
g58
S'MMMMMMMMMMMMMMMMMMMMMMMMUMMMMMMDMMMMMDMDMMMMMMMMMMMMMDMMMMDMMMMMMMMMMMMMMMMMMMMUMMMMMMDMMMMMMMMM'
p345
ssg43
(dp346
g58
S'MMMMUMMMMMMMMMMMMMMMMUMMUMMMMMMDMMMMMDMDMMMMMMMMMMMMMDMMMUDMMMMMMMMMMMMMMMMMMMMMMMUMMMDMMMMMMUMD'
p347
ssg45
(dp348
g58
S'MMMMMMMMMMMUMUMMMMMMMMMUMMMMMMMDMMMMMDUDMMMMMMMMMMMMMUMMMMDMMMMUMMMMMMMMMMMMMMMMMMMMMMDMMMMMMMMD'
p349
ssg47
(dp350
g58
S'MMMMMMMMMMMMMMMMMMMMMMMMMMMMMMMDMMMMMDMUMMMMMUMMMMMMMDUMMMDMMMMMMMMMMMMUMMMMMMMMMMMMMMDMMMMMMMMD'
p351
ssg49
(dp352
g58
S'MMMMMMMMMMMMMMMMMUMMMMMMMMMMMMMDMMUMUDMUMMMMMMMMMMMUMDMMMUDMMMMUMMMMMUMMMMMMMMMMMMMMMMDMMMMMMMMM'
p353
sssg27
(dp354
g8
g68
sg11
g115
sg13
g152
sg15
g185
sg17
g218
sg19
g243
sg21
g278
sg23
g305
sg25
g330
sg29
(dp355
g58
S'MMMMMMMMMMMUMUMMMMMMMMMUMMMMMMMMMMMMMMUDMMMMMMMMMMMMMUMMMDMMMMMDMDMMMMMMMMMMDMMMMMMMMMMMMMMMMMMU'
p356
ssg31
(dp357
g58
S'MMMMMMMMMMMDMDMMMMMMMMMDMMMMMMMUMMMMMUDDMMMMMMMMMMMMMDMMMMUMMMMDMMMMMMMMMMMMMMMMMMMMMMUMMMMMMMMM'
p358
ssg33
(dp359
g58
S'MMMMMMMMMMMMMDMMMMMMMMMDMMMMMMMMMMMMMMUUMMMMMMMMMMMMMDMMMMMMMMMUMMMMMMMMMMMMMMMMMMMMMMMMMMMMMMMU'
p360
ssg35
(dp361
g58
S'MMMMMMMMMMMDMDMMMMMMMMMDMMMMMMMMMMMMUMUUMMMMMMMMMMMMMDMMUUMMMMMUMMMMMMMMMMMMMMMMMMMMMMMMMMMMMMMM'
p362
ssg37
(dp363
g58
S'MMMMMMMMUMMDMDMMMMMMMMMDMMMMMMMMMMMMUMDUMMMMMMMMMMMMMDMMMUMMMMMUMUMMMMMMMMMMUMMMMMMMMMMMMMMMMMMD'
p364
ssg39
(dp365
g58
S'MMMMMMMMMMMDMDMMMMMMMMMDMMMMMMMUMMMMMUDDMMMMMMMMMMMMMDMMMMUMMMMDMMMMMMMMMMMMMMMMMMMMMMUMMMMMMMMU'
p366
ssg41
(dp367
g58
S'MMMMMMMMMMMDMDMMMMMMMMMDUMMMMMMMMMMMMMDDMMMMMMMMMMMMMDMMMMMMMMMDMMMMMMMMMMMMMMMUMMMMMMMMMMMMMMMU'
p368
ssg43
(dp369
g58
S'MMMMUMMMMMMDMDMMMMMMMUMDUMMMMMMMMMMMMMDDMMMMMMMMMMMMMDMMMUMMMMMDMMMMMMMMMMMMMMMMMMUMMMMMMMMMMUMD'
p370
ssg45
(dp371
g58
S'MMMMMMMMMMMDMUMMMMMMMMMUMMMMMMMMMMMMMMMDMMMMMMMMMMMMMUMMMMMMMMMDMMMMMMMMMMMMMMMMMMMMMMMMMMMMMMMD'
p372
ssg47
(dp373
g58
S'MMMMMMMMMMMDMDMMMMMMMMMDMMMMMMMMMMMMMMDUMMMMMUMMMMMMMDUMMMMMMMMDMMMMMMMUMMMMMMMMMMMMMMMMMMMMMMMM'
p374
ssg49
(dp375
g58
S'MMMMMMMMMMMDMDMMMUMMMMMDMMMMMMMMMMUMUMDUMMMMMMMMMMMUMDMMMUMMMMMUMMMMMUMMMMMMMMMMMMMMMMMMMMMMMMMU'
p376
sssg29
(dp377
g8
g76
sg11
g117
sg13
g154
sg15
g187
sg17
g220
sg19
g251
sg21
g280
sg25
g332
sg27
g355
sg49
(dp378
g58
S'MMMMMMMMMMMDMMMMMUMMMMMMMMMMMMMMMMUMUMMUMMMMMMMMMMMUMUMMMUMMMMMDMDMMMUMMMMMMDMMMMMMMMMMMMMMMMMMU'
p379
ssg31
(dp380
g58
S'MMMMMMMMMMMDMMMMMMMMMMMMMMMMMMMUMMMMMUMDMMMMMMMMMMMMMUMMMDUMMMMDMDMMMMMMMMMMDMMMMMMMMMUMMMMMMMMU'
p381
ssg33
(dp382
g58
S'MMMMMMMMMMMUMUMMMMMMMMMUMMMMMMMMMMMMMMUDMMMMMMMMMMMMMUMMMDMMMMMDMDMMMMMMMMMMDMMMMMMMMMMMMMMMMMMM'
p383
ssg35
(dp384
g58
S'MMMMMMMMMMMUMMMMMMMMMMMMMMMMMMMMMMMMUMUUMMMMMMMMMMMMMMMMUUMMMMMDMDMMMMMMMMMMDMMMMMMMMMMMMMMMMMMU'
p385
ssg37
(dp386
g58
S'MMMMMMMMUMMDMMMMMMMMMMMMMMMMMMMMMMMMUMMDMMMMMMMMMMMMMMMMMUMMMMMDMMMMMMMMMMMMUMMMMMMMMMMMMMMMMMMU'
p387
ssg39
(dp388
g58
S'MMMMMMMMMMMDMMMMMMMMMMMMMMMMMMMUMMMMMUMDMMMMMMMMMMMMMUMMMDUMMMMDMDMMMMMMMMMMDMMMMMMMMMUMMMMMMMMU'
p389
ssg41
(dp390
g58
S'MMMMMMMMMMMDMMMMMMMMMMMMUMMMMMMMMMMMMMMDMMMMMMMMMMMMMMMMMDMMMMMDMDMMMMMMMMMMDMMUMMMMMMMMMMMMMMMU'
p391
ssg43
(dp392
g58
S'MMMMUMMMMMMDMMMMMMMMMUMMUMMMMMMMMMMMMMMDMMMMMMMMMMMMMMMMMUMMMMMDMDMMMMMMMMMMDMMMMMUMMMMMMMMMMUMD'
p393
ssg45
(dp394
g58
S'MMMMMMMMMMMUMUMMMMMMMMMUMMMMMMMMMMMMMMUDMMMMMMMMMMMMMUMMMDMMMMMDMDMMMMMMMMMMDMMMMMMMMMMMMMMMMMMM'
p395
ssg47
(dp396
g58
S'MMMMMMMMMMMDMMMMMMMMMMMMMMMMMMMMMMMMMMMUMMMMMUMMMMMMMMUMMDMMMMMDMDMMMMMUMMMMDMMMMMMMMMMMMMMMMMMU'
p397
ssg23
g307
ssg31
(dp398
g8
g78
sg11
g119
sg13
g156
sg15
g189
sg17
g222
sg19
g253
sg21
g282
sg23
g309
sg25
g334
sg27
g357
sg29
g380
sg33
(dp399
g58
S'MMMMMMMMMMMDMDMMMMMMMMMDMMMMMMMUMMMMMUDUMMMMMMMMMMMMMDMMMMUMMMMDMMMMMMMMMMMMMMMMMMMMMMUMMMMMMMMU'
p400
ssg35
(dp401
g58
S'MMMMMMMMMMMDMMMMMMMMMMMMMMMMMMMUMMMMDUDDMMMMMMMMMMMMMUMMDDUMMMMDMMMMMMMMMMMMMMMMMMMMMMUMMMMMMMMU'
p402
ssg37
(dp403
g58
S'MMMMMMMMDMMDMMMMMMMMMMMMMMMMMMMUMMMMDUMDMMMMMMMMMMMMMUMMMDUMMMMDMDMMMMMMMMMMDMMMMMMMMMUMMMMMMMMU'
p404
ssg39
(dp405
g58
S'MMMMMMMMMMMMMMMMMMMMMMMMMMMMMMMDMMMMMDMMMMMMMMMMMMMMMUMMMMMMMMMMMMMMMMMMMMMMMMMMMMMMMMMMMMMMMMMD'
p406
ssg41
(dp407
g58
S'MMMMMMMMMMMMMMMMMMMMMMMMDMMMMMMUMMMMMUMUMMMMMMMMMMMMMUMMMMUMMMMMMMMMMMMMMMMMMMMDMMMMMMUMMMMMMMMM'
p408
ssg43
(dp409
g58
S'MMMMDMMMMMMMMMMMMMMMMDMMDMMMMMMUMMMMMUMUMMMMMMMMMMMMMUMMMDUMMMMMMMMMMMMMMMMMMMMMMMDMMMUMMMMMMDMU'
p410
ssg45
(dp411
g58
S'MMMMMMMMMMMDMDMMMMMMMMMDMMMMMMMUMMMMMUDMMMMMMMMMMMMMMDMMMMUMMMMDMMMMMMMMMMMMMMMMMMMMMMUMMMMMMMMU'
p412
ssg47
(dp413
g58
S'MMMMMMMMMMMMMMMMMMMMMMMMMMMMMMMDMMMMMDMUMMMMMUMMMMMMMDUMMMDMMMMMMMMMMMMUMMMMMMMMMMMMMMDMMMMMMMMD'
p414
ssg49
(dp415
g58
S'MMMMMMMMMMMMMMMMMDMMMMMMMMMMMMMUMMDMDUMDMMMMMMMMMMMDMUMMMDUMMMMDMMMMMDMMMMMMMMMMMMMMMMUMMMMMMMMD'
p416
sssg33
(dp417
g8
g80
sg11
g121
sg13
g158
sg15
g191
sg17
g224
sg19
g255
sg21
g284
sg23
g311
sg25
g336
sg27
g359
sg29
g382
sg31
g399
sg45
(dp418
g58
S'MMMMMMMMMMMDMMMMMMMMMMMMMMMMMMMMMMMMMMMUMMMMMMMMMMMMMMMMMMMMMMMUMMMMMMMMMMMMMMMMMMMMMMMMMMMMMMMM'
p419
ssg35
(dp420
g58
S'MMMMMMMMMMMDMDMMMMMMMMMDMMMMMMMMMMMMUMUUMMMMMMMMMMMMMDMMUUMMMMMUMMMMMMMMMMMMMMMMMMMMMMMMMMMMMMMU'
p421
ssg37
(dp422
g58
S'MMMMMMMMUMMDMDMMMMMMMMMDMMMMMMMMMMMMUMDUMMMMMMMMMMMMMDMMMUMMMMMUMUMMMMMMMMMMUMMMMMMMMMMMMMMMMMMU'
p423
ssg39
(dp424
g58
S'MMMMMMMMMMMDMDMMMMMMMMMDMMMMMMMUMMMMMUDUMMMMMMMMMMMMMDMMMMUMMMMDMMMMMMMMMMMMMMMMMMMMMMUMMMMMMMMU'
p425
ssg41
(dp426
g58
S'MMMMMMMMMMMDMDMMMMMMMMMDUMMMMMMMMMMMMMDDMMMMMMMMMMMMMDMMMMMMMMMDMMMMMMMMMMMMMMMUMMMMMMMMMMMMMMMU'
p427
ssg43
(dp428
g58
S'MMMMUMMMMMMDMDMMMMMMMUMDUMMMMMMMMMMMMMDUMMMMMMMMMMMMMDMMMUMMMMMDMMMMMMMMMMMMMMMMMMUMMMMMMMMMMUMD'
p429
ssg47
(dp430
g58
S'MMMMMMMMMMMDMDMMMMMMMMMDMMMMMMMMMMMMMMDUMMMMMUMMMMMMMDUMMMMMMMMDMMMMMMMUMMMMMMMMMMMMMMMMMMMMMMMU'
p431
ssg49
(dp432
g58
S'MMMMMMMMMMMDMDMMMUMMMMMDMMMMMMMMMMUMUMDUMMMMMMMMMMMUMDMMMUMMMMMUMMMMMUMMMMMMMMMMMMMMMMMMMMMMMMMU'
p433
sssg35
(dp434
g8
g82
sg11
g123
sg13
g160
sg15
g193
sg17
g226
sg19
g257
sg21
g286
sg23
g313
sg25
g338
sg27
g361
sg29
g384
sg31
g401
sg33
g420
sg37
(dp435
g58
S'MMMMMMMMUMMDMMMMMMMMMMMMMMMMMMMMMMMMDMDDMMMMMMMMMMMMMMMMDMMMMMMUMUMMMMMMMMMMUMMMMMMMMMMMMMMMMMMD'
p436
ssg39
(dp437
g58
S'MMMMMMMMMMMDMMMMMMMMMMMMMMMMMMMUMMMMDUDDMMMMMMMMMMMMMUMMDDUMMMMDMMMMMMMMMMMMMMMMMMMMMMUMMMMMMMMU'
p438
ssg41
(dp439
g58
S'MMMMMMMMMMMDMMMMMMMMMMMMUMMMMMMMMMMMDMDDMMMMMMMMMMMMMMMMDDMMMMMDMMMMMMMMMMMMMMMUMMMMMMMMMMMMMMMU'
p440
ssg43
(dp441
g58
S'MMMMDMMMMMMUMMMMMMMMMDMMDMMMMMMMMMMMUMUUMMMMMMMMMMMMMMMMUDMMMMMUMMMMMMMMMMMMMMMMMMDMMMMMMMMMMDMU'
p442
ssg45
(dp443
g58
S'MMMMMMMMMMMUMDMMMMMMMMMDMMMMMMMMMMMMUMUUMMMMMMMMMMMMMDMMUUMMMMMUMMMMMMMMMMMMMMMMMMMMMMMMMMMMMMMU'
p444
ssg47
(dp445
g58
S'MMMMMMMMMMMDMMMMMMMMMMMMMMMMMMMMMMMMDMDUMMMMMUMMMMMMMMUMDDMMMMMDMMMMMMMUMMMMMMMMMMMMMMMMMMMMMMMM'
p446
ssg49
(dp447
g58
S'MMMMMMMMMMMUMMMMMDMMMMMMMMMMMMMMMMDMDMUUMMMMMMMMMMMDMDMMUMMMMMMUMMMMMDMMMMMMMMMMMMMMMMMMMMMMMMMD'
p448
sssg37
(dp449
g8
g84
sg11
g125
sg13
g162
sg15
g195
sg17
g228
sg19
g259
sg21
g288
sg23
g315
sg25
g340
sg27
g363
sg29
g386
sg31
g403
sg33
g422
sg35
g435
sg39
(dp450
g58
S'MMMMMMMMDMMDMMMMMMMMMMMMMMMMMMMUMMMMDUMDMMMMMMMMMMMMMUMMMDUMMMMDMDMMMMMMMMMMDMMMMMMMMMUMMMMMMMMU'
p451
ssg41
(dp452
g58
S'MMMMMMMMDMMDMMMMMMMMMMMMUMMMMMMMMMMMDMMDMMMMMMMMMMMMMMMMMDMMMMMDMDMMMMMMMMMMDMMUMMMMMMMMMMMMMMMU'
p453
ssg43
(dp454
g58
S'MMMMDMMMUMMUMMMMMMMMMDMMDMMMMMMMMMMMUMMUMMMMMMMMMMMMMMMMMDMMMMMUMUMMMMMMMMMMUMMMMMDMMMMMMMMMMDMU'
p455
ssg45
(dp456
g58
S'MMMMMMMMUMMDMDMMMMMMMMMDMMMMMMMMMMMMUMDUMMMMMMMMMMMMMDMMMUMMMMMUMUMMMMMMMMMMUMMMMMMMMMMMMMMMMMMU'
p457
ssg47
(dp458
g58
S'MMMMMMMMDMMDMMMMMMMMMMMMMMMMMMMMMMMMDMMUMMMMMUMMMMMMMMUMMDMMMMMDMDMMMMMUMMMMDMMMMMMMMMMMMMMMMMMU'
p459
ssg49
(dp460
g58
S'MMMMMMMMUMMUMMMMMDMMMMMMMMMMMMMMMMDMDMMDMMMMMMMMMMMDMDMMMMMMMMMUMUMMMDMMMMMMUMMMMMMMMMMMMMMMMMMD'
p461
sssg39
(dp462
g8
g86
sg11
g127
sg13
g164
sg15
g197
sg17
g230
sg19
g261
sg21
g290
sg23
g317
sg25
g342
sg27
g365
sg29
g388
sg31
g405
sg33
g424
sg35
g437
sg37
g450
sg41
(dp463
g58
S'MMMMMMMMMMMMMMMMMMMMMMMMUMMMMMMDMMMMMDMDMMMMMMMMMMMMMDMMMMDMMMMMMMMMMMMMMMMMMMMUMMMMMMDMMMMMMMMD'
p464
ssg43
(dp465
g58
S'MMMMDMMMMMMMMMMMMMMMMDMMDMMMMMMUMMMMMUMUMMMMMMMMMMMMMUMMMDUMMMMMMMMMMMMMMMMMMMMMMMDMMMUMMMMMMDMU'
p466
ssg45
(dp467
g58
S'MMMMMMMMMMMDMDMMMMMMMMMDMMMMMMMUMMMMMUDMMMMMMMMMMMMMMDMMMMUMMMMDMMMMMMMMMMMMMMMMMMMMMMUMMMMMMMMU'
p468
ssg47
(dp469
g58
S'MMMMMMMMMMMMMMMMMMMMMMMMMMMMMMMDMMMMMDMUMMMMMUMMMMMMMDUMMMDMMMMMMMMMMMMUMMMMMMMMMMMMMMDMMMMMMMMD'
p470
ssg49
(dp471
g58
S'MMMMMMMMMMMMMMMMMDMMMMMMMMMMMMMUMMDMDUMDMMMMMMMMMMMDMDMMMDUMMMMDMMMMMDMMMMMMMMMMMMMMMMUMMMMMMMMU'
p472
sssg41
(dp473
g8
g88
sg11
g129
sg13
g138
sg15
g199
sg17
g232
sg19
g263
sg21
g292
sg23
g319
sg25
g344
sg27
g367
sg29
g390
sg31
g407
sg33
g426
sg35
g439
sg37
g452
sg39
g463
sg43
(dp474
g58
S'MMMMDMMMMMMMMMMMMMMMMDMMUMMMMMMMMMMMMMMDMMMMMMMMMMMMMMMMMDMMMMMMMMMMMMMMMMMMMMMUMMDMMMMMMMMMMDMU'
p475
ssg45
(dp476
g58
S'MMMMMMMMMMMDMDMMMMMMMMMDUMMMMMMMMMMMMMDDMMMMMMMMMMMMMDMMMMMMMMMDMMMMMMMMMMMMMMMUMMMMMMMMMMMMMMMU'
p477
ssg47
(dp478
g58
S'MMMMMMMMMMMMMMMMMMMMMMMMDMMMMMMMMMMMMMMUMMMMMUMMMMMMMMUMMMMMMMMMMMMMMMMUMMMMMMMDMMMMMMMMMMMMMMMD'
p479
ssg49
(dp480
g58
S'MMMMMMMMMMMMMMMMMDMMMMMMUMMMMMMMMMDMDMMDMMMMMMMMMMMDMDMMMDMMMMMDMMMMMDMMMMMMMMMUMMMMMMMMMMMMMMMD'
p481
sssg43
(dp482
g8
g90
sg11
g131
sg13
g166
sg15
g201
sg17
g234
sg19
g265
sg21
g294
sg23
g321
sg25
g346
sg27
g369
sg29
g392
sg33
g428
sg35
g441
sg37
g454
sg39
g465
sg41
g474
sg31
g409
sg45
(dp483
g58
S'MMMMDMMMMMMUMUMMMMMMMDMUDMMMMMMMMMMMMMUUMMMMMMMMMMMMMUMMMDMMMMMUMMMMMMMMMMMMMMMMMMDMMMMMMMMMMDMU'
p484
ssg47
(dp485
g58
S'MMMMDMMMMMMMMMMMMMMMMDMMDMMMMMMMMMMMMMMUMMMMMUMMMMMMMMUMMDMMMMMMMMMMMMMUMMMMMMMMMMDMMMMMMMMMMDMU'
p486
ssg49
(dp487
g58
S'MMMMDMMMMMMMMMMMMUMMMDMMDMMMMMMMMMUMUMMUMMMMMMMMMMMUMUMMMDMMMMMUMMMMMUMMMMMMMMMMMMDMMMMMMMMMMDMU'
p488
sssg45
(dp489
g8
g92
sg11
g99
sg13
g168
sg15
g203
sg17
g236
sg19
g267
sg21
g296
sg23
g323
sg25
g348
sg27
g371
sg29
g394
sg31
g411
sg33
g418
sg35
g443
sg37
g456
sg39
g467
sg41
g476
sg43
g483
sg47
(dp490
g58
S'MMMMMMMMMMMDMDMMMMMMMMMDMMMMMMMMMMMMMMDUMMMMMUMMMMMMMDUMMMMMMMMDMMMMMMMUMMMMMMMMMMMMMMMMMMMMMMMU'
p491
ssg49
(dp492
g58
S'MMMMMMMMMMMUMUMMMDMMMMMUMMMMMMMMMMDMDMUDMMMMMMMMMMMDMUMMMDMMMMMDMMMMMDMMMMMMMMMMMMMMMMMMMMMMMMMD'
p493
sssg47
(dp494
g8
g94
sg11
g133
sg13
g170
sg15
g205
sg17
g238
sg19
g269
sg21
g298
sg23
g325
sg25
g350
sg27
g373
sg29
g396
sg31
g413
sg33
g430
sg35
g445
sg37
g458
sg39
g469
sg41
g478
sg43
g485
sg45
g490
sg49
(dp495
g58
S'MMMMMMMMMMMMMMMMMDMMMMMMMMMMMMMMMMDMDMMUMMMMMUMMMMMDMDUMMDMMMMMDMMMMMDMUMMMMMMMMMMMMMMMMMMMMMMMD'
p496
sssg49
(dp497
g8
g96
sg11
g135
sg13
g172
sg15
g207
sg17
g240
sg19
g271
sg21
g300
sg25
g352
sg27
g375
sg29
g378
sg31
g415
sg33
g432
sg35
g447
sg37
g460
sg39
g471
sg41
g480
sg43
g487
sg45
g492
sg47
g495
sg23
g327
sssS'adj'
p498
g55
sb.