(dp0
S'assemblage-163-872'
p1
(lp2
I0
aI0
aI0
aI0
aI0
aI0
aI0
aI0
aI0
aI0
aI0
acnumpy.core.multiarray
scalar
p3
(cnumpy
dtype
p4
(S'f8'
p5
I0
I1
tp6
Rp7
(I3
S'<'
p8
NNNI-1
I-1
I0
tp9
bS'4\xff\xebV\x9c\x9d\xbe?'
p10
tp11
Rp12
aI0
ag3
(g7
S'\xf2hh\x08\xa5\xc7\x93?'
p13
tp14
Rp15
aI0
aI0
aI0
aI0
aI0
aI0
aI0
aI0
aI0
ag3
(g7
S'T\xb6\xf0_\xc6K\xb3?'
p16
tp17
Rp18
aI0
aI0
aI0
aI0
aI0
aI0
aI0
aI0
aI0
aI0
aI0
aI0
aI0
aI0
ag3
(g7
S'h"\xe2\xb9\xdc\xfe\xaf?'
p19
tp20
Rp21
ag3
(g7
S'\x90+`\x85\x7f\xb3\xb1?'
p22
tp23
Rp24
aI0
aI0
aI0
aI0
aI0
aI0
aI0
aI0
aI0
aI0
aI0
aI0
aI0
ag3
(g7
S'8\xfd]!\xa1}\xe3?'
p25
tp26
Rp27
aI0
aI0
aI0
aI0
aI0
aI0
aI0
aI0
aI0
ag3
(g7
S'\x00\xfbK\x80\xdc\xee\x93?'
p28
tp29
Rp30
aI0
aI0
aI0
aI0
aI0
aI0
aI0
aI0
aI0
aI0
aI0
aI0
aI0
aI0
aI0
aI0
aI0
aI0
aI0
aI0
aI0
aI0
aI0
aI0
aI0
aI0
aI0
aI0
aI0
aI0
aI0
ag3
(g7
S'\x06&\x90\xfe\x92\xeb\xa5?'
p31
tp32
Rp33
asS'assemblage-914-742'
p34
(lp35
I0
aI0
aI0
aI0
aI0
aI0
aI0
aI0
aI0
aI0
aI0
ag3
(g7
S'0\xd6\xc0I\xc2\xc6\xae?'
p36
tp37
Rp38
aI0
aI0
aI0
aI0
aI0
aI0
aI0
aI0
aI0
aI0
aI0
aI0
aI0
aI0
aI0
aI0
aI0
aI0
aI0
aI0
aI0
aI0
aI0
aI0
aI0
aI0
aI0
ag3
(g7
S'\x97\x07\x95(\x19\x06\xd5?'
p39
tp40
Rp41
aI0
aI0
aI0
aI0
aI0
aI0
aI0
aI0
aI0
aI0
aI0
aI0
aI0
aI0
aI0
aI0
aI0
ag3
(g7
S'z\xef\xf8\xacQ\x0fr?'
p42
tp43
Rp44
aI0
aI0
aI0
aI0
aI0
ag3
(g7
S'\x93\xa7\xf5\xb4\xfc!\xe0?'
p45
tp46
Rp47
aI0
ag3
(g7
S"\xee;xL\x07'\x95?"
p48
tp49
Rp50
aI0
aI0
aI0
aI0
aI0
aI0
aI0
aI0
aI0
aI0
ag3
(g7
S'\xe6\xc3?\xa7\xf4\xf9\xb1?'
p51
tp52
Rp53
aI0
aI0
aI0
aI0
aI0
aI0
aI0
aI0
aI0
aI0
aI0
aI0
aI0
aI0
aI0
aI0
aI0
aI0
ag3
(g7
S'q`.\xd5\xcf\x95\x9d?'
p54
tp55
Rp56
asS'assemblage-158-858'
p57
(lp58
I0
aI0
aI0
aI0
aI0
ag3
(g7
S'VZ\xe5V\x03\xfb\xd3?'
p59
tp60
Rp61
aI0
aI0
aI0
aI0
aI0
ag3
(g7
S"\x07\x0c\xe6\x18O'\xdf?"
p62
tp63
Rp64
aI0
aI0
aI0
aI0
aI0
aI0
aI0
aI0
aI0
aI0
aI0
aI0
aI0
aI0
aI0
aI0
aI0
aI0
aI0
aI0
aI0
aI0
aI0
aI0
aI0
aI0
aI0
ag3
(g7
S'\xf4\xf5\xc0B\xfe\x95\xad?'
p65
tp66
Rp67
aI0
aI0
aI0
aI0
aI0
aI0
aI0
ag3
(g7
S'bL\xb2\xd8,\x1d\x85?'
p68
tp69
Rp70
aI0
aI0
aI0
aI0
aI0
ag3
(g7
S'\xee=\xb6\xe4u\x7f\xac?'
p71
tp72
Rp73
aI0
aI0
aI0
aI0
aI0
aI0
aI0
aI0
aI0
aI0
aI0
aI0
aI0
aI0
aI0
aI0
aI0
aI0
aI0
aI0
ag3
(g7
S'\x0eh=K\x10\xef\xa4?'
p74
tp75
Rp76
aI0
aI0
aI0
aI0
aI0
aI0
aI0
aI0
aI0
aI0
aI0
aI0
aI0
aI0
aI0
aI0
aI0
aI0
aI0
aI0
ag3
(g7
S'\xd3x\x0c\x11\xc9\x13\xab?'
p77
tp78
Rp79
asS'assemblage-717-153'
p80
(lp81
I0
aI0
aI0
aI0
ag3
(g7
S'\x7fT\x81\xec\xe82\xe7?'
p82
tp83
Rp84
aI0
aI0
aI0
aI0
aI0
aI0
aI0
aI0
aI0
aI0
aI0
aI0
aI0
aI0
aI0
aI0
ag3
(g7
S'\xe2\x06\x9e({g\xa6?'
p85
tp86
Rp87
aI0
aI0
ag3
(g7
S'%\x0631\x8c\xba\xa8?'
p88
tp89
Rp90
aI0
aI0
aI0
aI0
aI0
aI0
aI0
aI0
aI0
aI0
aI0
aI0
aI0
aI0
ag3
(g7
S'w\xda\xc2\xdeg\xd7\x94?'
p91
tp92
Rp93
aI0
aI0
aI0
aI0
aI0
aI0
aI0
aI0
aI0
aI0
aI0
aI0
aI0
aI0
aI0
aI0
aI0
ag3
(g7
S'k$\xc5\xeb\x89\xa5\xab?'
p94
tp95
Rp96
aI0
aI0
aI0
aI0
aI0
aI0
aI0
aI0
aI0
aI0
aI0
aI0
aI0
aI0
aI0
aI0
aI0
aI0
aI0
aI0
aI0
aI0
aI0
aI0
ag3
(g7
S'"0\xde\x05u\x0e\x97?'
p97
tp98
Rp99
aI0
aI0
aI0
aI0
aI0
aI0
aI0
aI0
aI0
aI0
ag3
(g7
S'\xbe\xa0\x114\xf60\xb2?'
p100
tp101
Rp102
aI0
ag3
(g7
S'T\x86ir\x944\x9f?'
p103
tp104
Rp105
asS'assemblage-314-483'
p106
(lp107
I0
aI0
aI0
aI0
aI0
ag3
(g7
S'K\x1c\xfa\x88#\x03\xd4?'
p108
tp109
Rp110
aI0
aI0
aI0
aI0
aI0
ag3
(g7
S"m>\x16R'\xcc\xde?"
p111
tp112
Rp113
aI0
aI0
aI0
aI0
aI0
aI0
aI0
aI0
aI0
aI0
aI0
aI0
aI0
aI0
aI0
aI0
aI0
aI0
aI0
aI0
aI0
aI0
aI0
aI0
aI0
aI0
aI0
ag3
(g7
S'$\xd0\xcc$vA\xaf?'
p114
tp115
Rp116
aI0
aI0
aI0
aI0
aI0
aI0
aI0
ag3
(g7
S'\xbf\xadp\x9f \xcd\x86?'
p117
tp118
Rp119
aI0
aI0
aI0
aI0
aI0
ag3
(g7
S'A\xee\xd7r\x9e\xad\xae?'
p120
tp121
Rp122
aI0
aI0
aI0
aI0
aI0
aI0
aI0
aI0
aI0
aI0
aI0
aI0
aI0
aI0
aI0
aI0
aI0
aI0
aI0
aI0
ag3
(g7
S'\xc6\xcb\x15\xcc+\x01\x9a?'
p123
tp124
Rp125
aI0
aI0
aI0
aI0
aI0
aI0
aI0
aI0
aI0
aI0
aI0
aI0
aI0
aI0
aI0
aI0
aI0
aI0
aI0
aI0
ag3
(g7
S's\xa2VmF\xe3\xb0?'
p126
tp127
Rp128
asS'assemblage-433-925'
p129
(lp130
I0
aI0
aI0
aI0
aI0
aI0
aI0
aI0
aI0
aI0
aI0
aI0
aI0
aI0
aI0
aI0
aI0
ag3
(g7
S'\x84\xb0\xba~\xa33\xb4?'
p131
tp132
Rp133
aI0
aI0
ag3
(g7
S'\xc6K+\xf0\xe3\xf7\x91?'
p134
tp135
Rp136
aI0
aI0
aI0
aI0
aI0
aI0
aI0
aI0
aI0
aI0
aI0
aI0
aI0
ag3
(g7
S'\xa13*\xfcSV\x98?'
p137
tp138
Rp139
aI0
ag3
(g7
S'\xa4\x18\x0c\xe2\x17\x13\xa0?'
p140
tp141
Rp142
aI0
aI0
ag3
(g7
S'\xdbSl\xf5\xb2<\xe0?'
p143
tp144
Rp145
aI0
aI0
aI0
aI0
aI0
aI0
aI0
aI0
aI0
aI0
aI0
ag3
(g7
S'\xe0K\xe9d\xa8e\x91?'
p146
tp147
Rp148
aI0
ag3
(g7
S'R\x87H\x84\xc8\x1d\xc9?'
p149
tp150
Rp151
aI0
aI0
aI0
ag3
(g7
S'<\xe2\xf0\xf4\xfa\xd5\x96?'
p152
tp153
Rp154
aI0
aI0
aI0
aI0
aI0
ag3
(g7
S'&x\xae\xfc\x1c\xa2\xa8?'
p155
tp156
Rp157
aI0
aI0
aI0
aI0
ag3
(g7
S'\x04\xf5i\xad\\\xa9\x8f?'
p158
tp159
Rp160
ag3
(g7
S'\xc5\xfa\xb7\xbf\xb4\xa2\xa4?'
p161
tp162
Rp163
aI0
aI0
aI0
aI0
aI0
aI0
aI0
aI0
aI0
aI0
aI0
aI0
aI0
aI0
aI0
aI0
aI0
aI0
aI0
aI0
aI0
aI0
aI0
aI0
aI0
ag3
(g7
S'Q\x90j]\x87\x15\x99?'
p164
tp165
Rp166
asS'assemblage-447-927'
p167
(lp168
I0
aI0
aI0
aI0
aI0
aI0
aI0
aI0
aI0
aI0
aI0
ag3
(g7
S'\xcf6\x157/\x94\xbf?'
p169
tp170
Rp171
aI0
aI0
aI0
aI0
aI0
aI0
aI0
aI0
aI0
aI0
aI0
aI0
aI0
aI0
aI0
aI0
aI0
aI0
aI0
aI0
aI0
aI0
aI0
aI0
ag3
(g7
S'\xdd:\x850\xa35\x82?'
p172
tp173
Rp174
aI0
ag3
(g7
S'~8\xb9!:<\xb2?'
p175
tp176
Rp177
ag3
(g7
S'\xf3\x96\xc9\xc0\xf7Y\xe4?'
p178
tp179
Rp180
aI0
aI0
aI0
aI0
aI0
aI0
aI0
aI0
aI0
aI0
aI0
aI0
aI0
aI0
aI0
aI0
ag3
(g7
S'(6V\xdc\xe7\xa0\xa2?'
p181
tp182
Rp183
ag3
(g7
S'TZ\x13\xa9\x18\xfe|?'
p184
tp185
Rp186
aI0
aI0
aI0
aI0
aI0
ag3
(g7
S'\xfb\x0cL\x00\xbe0\xb4?'
p187
tp188
Rp189
aI0
aI0
aI0
aI0
aI0
aI0
aI0
aI0
aI0
aI0
aI0
aI0
aI0
aI0
aI0
aI0
aI0
aI0
aI0
aI0
aI0
aI0
aI0
aI0
aI0
aI0
aI0
aI0
aI0
aI0
aI0
ag3
(g7
S'\x1b\xf7\xc6U\x05\xc8\xab?'
p190
tp191
Rp192
asS'assemblage-266-233'
p193
(lp194
I0
aI0
aI0
aI0
aI0
ag3
(g7
S'\x8f[\xb2\x81\xb5)\x8b?'
p195
tp196
Rp197
aI0
aI0
aI0
aI0
aI0
ag3
(g7
S'\x82Fv\x15\xdd\x10\xa1?'
p198
tp199
Rp200
aI0
aI0
aI0
aI0
aI0
aI0
aI0
aI0
aI0
aI0
aI0
aI0
aI0
aI0
aI0
aI0
aI0
aI0
aI0
aI0
aI0
aI0
aI0
aI0
aI0
aI0
aI0
ag3
(g7
S'\xeb\xc9\x8c\xf4\xaab\x96?'
p201
tp202
Rp203
aI0
aI0
aI0
aI0
aI0
aI0
aI0
aI0
aI0
aI0
aI0
aI0
aI0
ag3
(g7
S'S^\xb9\x9f<i\xdf?'
p204
tp205
Rp206
aI0
aI0
aI0
aI0
aI0
aI0
aI0
aI0
aI0
aI0
ag3
(g7
S'\xc6\xfd\xb3\xc3\xcc=\xb2?'
p207
tp208
Rp209
aI0
aI0
aI0
aI0
aI0
aI0
aI0
aI0
aI0
aI0
aI0
aI0
aI0
aI0
aI0
aI0
aI0
aI0
aI0
aI0
aI0
ag3
(g7
S'\x04\x82\x1d\xdfd\x92\xd3?'
p210
tp211
Rp212
aI0
aI0
aI0
aI0
aI0
aI0
aI0
aI0
ag3
(g7
S'd\x13j\xa3\x95\x96\xb4?'
p213
tp214
Rp215
asS'assemblage-919-741'
p216
(lp217
I0
aI0
aI0
aI0
aI0
aI0
aI0
aI0
aI0
aI0
aI0
aI0
aI0
aI0
aI0
aI0
aI0
aI0
aI0
aI0
aI0
aI0
aI0
aI0
aI0
aI0
aI0
aI0
aI0
aI0
aI0
ag3
(g7
S'z"\x84\xf4k]w?'
p218
tp219
Rp220
aI0
aI0
aI0
aI0
aI0
ag3
(g7
S'x\x08\x9fB\xe3&\xa7?'
p221
tp222
Rp223
aI0
ag3
(g7
S'\xca\xae\xbd\xe1\x13Q\xb8?'
p224
tp225
Rp226
aI0
aI0
aI0
aI0
aI0
aI0
aI0
aI0
aI0
aI0
aI0
aI0
aI0
ag3
(g7
S'b\xad\x00\xf9"\xca\xcb?'
p227
tp228
Rp229
aI0
aI0
aI0
aI0
ag3
(g7
S'K\x1fbycE\xab?'
p230
tp231
Rp232
aI0
aI0
aI0
aI0
aI0
aI0
aI0
aI0
aI0
aI0
aI0
aI0
aI0
aI0
aI0
aI0
aI0
aI0
aI0
aI0
aI0
aI0
aI0
aI0
aI0
aI0
aI0
ag3
(g7
S'j\xaf\xdd\xb83\x85\xe1?'
p233
tp234
Rp235
aI0
aI0
aI0
aI0
aI0
aI0
aI0
aI0
ag3
(g7
S'\x01\xee\x9a\t\x98*\xab?'
p236
tp237
Rp238
asS'assemblage-837-485'
p239
(lp240
I0
aI0
aI0
aI0
aI0
ag3
(g7
S'\xe6B\xf9\xe5\xee\x95\xbb?'
p241
tp242
Rp243
ag3
(g7
S'U?\xff"\xce\xe1\x8e?'
p244
tp245
Rp246
aI0
aI0
aI0
aI0
aI0
ag3
(g7
S':\x0f\xf0\x92\xe2-\x82?'
p247
tp248
Rp249
aI0
aI0
aI0
aI0
aI0
aI0
ag3
(g7
S'\xc8\x8at\x8b\xff=y?'
p250
tp251
Rp252
aI0
aI0
aI0
aI0
aI0
aI0
aI0
aI0
aI0
aI0
aI0
aI0
ag3
(g7
S'\x9a\xee\xc60"\x98\xb0?'
p253
tp254
Rp255
aI0
aI0
aI0
aI0
aI0
aI0
ag3
(g7
S'\xe1\xfb\xc7.&Z\xb6?'
p256
tp257
Rp258
aI0
aI0
ag3
(g7
S'Ga\xe3\xc7\x87\x8c\x8a?'
p259
tp260
Rp261
aI0
aI0
aI0
aI0
aI0
aI0
aI0
aI0
aI0
aI0
ag3
(g7
S'WzwGf@\xd0?'
p262
tp263
Rp264
aI0
aI0
aI0
aI0
aI0
aI0
aI0
aI0
aI0
aI0
aI0
aI0
aI0
aI0
aI0
aI0
aI0
aI0
aI0
aI0
aI0
aI0
aI0
ag3
(g7
S'\xc4\xe5h4\xdf\xcc\xd1?'
p265
tp266
Rp267
aI0
aI0
aI0
aI0
aI0
aI0
aI0
aI0
ag3
(g7
S'\x07 \xa9\xf0\xa2\x04\xc1?'
p268
tp269
Rp270
aI0
aI0
aI0
aI0
aI0
ag3
(g7
S'&\x88\x97\xe7\xcb0\x93?'
p271
tp272
Rp273
aI0
aI0
ag3
(g7
S'\x97Z\xf8\xa7\xbbH\xa3?'
p274
tp275
Rp276
asS'assemblage-987-160'
p277
(lp278
I0
aI0
aI0
aI0
ag3
(g7
S'\x03\xdc\xbeX\xb9\xa5\xe6?'
p279
tp280
Rp281
aI0
aI0
aI0
aI0
aI0
aI0
aI0
aI0
aI0
aI0
aI0
aI0
aI0
aI0
aI0
aI0
ag3
(g7
S'2,f\x8c\x8bE\xae?'
p282
tp283
Rp284
aI0
aI0
ag3
(g7
S'\xd8\xad.^9\x86\xb1?'
p285
tp286
Rp287
aI0
aI0
aI0
aI0
aI0
aI0
aI0
aI0
aI0
aI0
aI0
aI0
aI0
aI0
ag3
(g7
S'\xbc\xae\x0c+\x1cY\xac?'
p288
tp289
Rp290
aI0
aI0
aI0
aI0
aI0
aI0
aI0
aI0
aI0
aI0
aI0
aI0
aI0
aI0
aI0
aI0
aI0
ag3
(g7
S'f\xb7\xb3\xf3\x95S\xa0?'
p291
tp292
Rp293
aI0
aI0
aI0
aI0
aI0
aI0
aI0
aI0
aI0
aI0
aI0
aI0
aI0
aI0
aI0
aI0
aI0
aI0
aI0
aI0
aI0
aI0
aI0
aI0
ag3
(g7
S'L\xab\xddh_\xa4\x98?'
p294
tp295
Rp296
aI0
aI0
aI0
aI0
aI0
aI0
aI0
aI0
aI0
aI0
ag3
(g7
S'p?\x0e\xdb\xcbB\xa9?'
p297
tp298
Rp299
aI0
ag3
(g7
S'\x91\xf6\x8cJ\x1eL\x95?'
p300
tp301
Rp302
asS'assemblage-773-705'
p303
(lp304
I0
aI0
aI0
aI0
aI0
aI0
aI0
aI0
aI0
aI0
aI0
aI0
aI0
aI0
aI0
aI0
aI0
ag3
(g7
S'\xbb\xd7\xa2\xb5\xea\x12\xb1?'
p305
tp306
Rp307
aI0
aI0
aI0
aI0
aI0
aI0
aI0
aI0
aI0
aI0
aI0
aI0
aI0
aI0
aI0
aI0
ag3
(g7
S'\xa6-\x983m \xa6?'
p308
tp309
Rp310
aI0
ag3
(g7
S'H\xe4\r\xed@\x1c\x93?'
p311
tp312
Rp313
aI0
aI0
ag3
(g7
S'0\xee#\x81\xd9\x98\xdf?'
p314
tp315
Rp316
aI0
aI0
aI0
aI0
aI0
aI0
aI0
aI0
aI0
aI0
aI0
ag3
(g7
S'Ns\xef\xc8\xdf\xa7\x96?'
p317
tp318
Rp319
aI0
ag3
(g7
S'\rx}\x89\xb2\x13\xc9?'
p320
tp321
Rp322
aI0
aI0
aI0
ag3
(g7
S'\xd1\xe2\x8daCF\x90?'
p323
tp324
Rp325
aI0
aI0
aI0
aI0
aI0
ag3
(g7
S'\xfe\xa39.\x10E\xae?'
p326
tp327
Rp328
aI0
aI0
aI0
aI0
aI0
ag3
(g7
S'9{\xa6"N\n\xab?'
p329
tp330
Rp331
aI0
aI0
aI0
aI0
aI0
aI0
aI0
aI0
aI0
aI0
aI0
aI0
aI0
aI0
aI0
aI0
aI0
aI0
aI0
aI0
aI0
aI0
aI0
aI0
aI0
ag3
(g7
S'U~\x83l\xb2L\xab?'
p332
tp333
Rp334
asS'assemblage-157-857'
p335
(lp336
I0
aI0
aI0
aI0
aI0
aI0
aI0
aI0
aI0
aI0
aI0
ag3
(g7
S'Jxb\x11\x0b3\xbe?'
p337
tp338
Rp339
aI0
ag3
(g7
S'?c\xe1C?\xcf\x9c?'
p340
tp341
Rp342
aI0
aI0
aI0
aI0
aI0
aI0
aI0
aI0
aI0
ag3
(g7
S'G\xd7\xe1\xe3J\xb2\xbc?'
p343
tp344
Rp345
aI0
aI0
aI0
aI0
aI0
aI0
aI0
aI0
aI0
aI0
aI0
aI0
aI0
aI0
ag3
(g7
S'\xbb\xb5\x0c\x05M\xea\xac?'
p346
tp347
Rp348
ag3
(g7
S'\xa2y\x94\xac\x0c\x15\xa3?'
p349
tp350
Rp351
aI0
aI0
aI0
aI0
aI0
aI0
aI0
aI0
aI0
aI0
aI0
aI0
aI0
ag3
(g7
S'\xcc\x97+\xeb\xf3\x15\xe4?'
p352
tp353
Rp354
aI0
aI0
aI0
aI0
aI0
aI0
aI0
aI0
aI0
ag3
(g7
S'\xcf\x87\xdc\xc7l\xb1\x86?'
p355
tp356
Rp357
aI0
aI0
aI0
aI0
aI0
aI0
aI0
aI0
aI0
aI0
aI0
aI0
aI0
aI0
aI0
aI0
aI0
aI0
aI0
aI0
aI0
aI0
aI0
aI0
aI0
aI0
aI0
aI0
aI0
aI0
aI0
ag3
(g7
S'\xca\xef\xactN\x94\x9b?'
p358
tp359
Rp360
asS'assemblage-475-921'
p361
(lp362
I0
aI0
aI0
aI0
aI0
aI0
aI0
aI0
aI0
aI0
aI0
ag3
(g7
S'\x08\x0f8\xea\x9d\xab\xb9?'
p363
tp364
Rp365
aI0
aI0
aI0
aI0
aI0
aI0
aI0
aI0
aI0
aI0
aI0
aI0
aI0
aI0
aI0
aI0
aI0
aI0
aI0
aI0
aI0
aI0
aI0
aI0
ag3
(g7
S'R\xee\xe5\xd1vN\x8a?'
p366
tp367
Rp368
aI0
ag3
(g7
S'\x94szV\x04^\xb4?'
p369
tp370
Rp371
ag3
(g7
S'\x1a9\\\xe1=\xba\xe4?'
p372
tp373
Rp374
aI0
aI0
aI0
aI0
aI0
aI0
aI0
aI0
aI0
aI0
aI0
aI0
aI0
aI0
aI0
aI0
ag3
(g7
S'\x01v\xa4\xb1\xe7H\x98?'
p375
tp376
Rp377
ag3
(g7
S"'ju\xffV`\x91?"
p378
tp379
Rp380
aI0
aI0
aI0
aI0
aI0
ag3
(g7
S'\xb2Lq\xd1\xbdW\xb8?'
p381
tp382
Rp383
aI0
aI0
aI0
aI0
aI0
aI0
aI0
aI0
aI0
aI0
aI0
aI0
aI0
aI0
aI0
aI0
aI0
aI0
aI0
aI0
aI0
aI0
aI0
aI0
aI0
aI0
aI0
aI0
aI0
aI0
aI0
ag3
(g7
S'y\x9a*\x11\xe2\xcc\xa4?'
p384
tp385
Rp386
asS'assemblage-765-726'
p387
(lp388
I0
aI0
aI0
aI0
aI0
aI0
aI0
aI0
ag3
(g7
S'\x8e\x03\x1f\xc2\xba\xc3\x81?'
p389
tp390
Rp391
aI0
aI0
ag3
(g7
S"\x13t&x\x8e'\xa6?"
p392
tp393
Rp394
aI0
aI0
aI0
aI0
aI0
aI0
aI0
aI0
aI0
aI0
aI0
aI0
aI0
aI0
aI0
aI0
aI0
aI0
aI0
aI0
aI0
aI0
aI0
aI0
ag3
(g7
S'\x10\xf8\x82\xca\x0f\xf2\x85?'
p395
tp396
Rp397
aI0
aI0
ag3
(g7
S'8\x05\xb1y\xcb\x84\xd2?'
p398
tp399
Rp400
aI0
aI0
aI0
aI0
aI0
aI0
aI0
aI0
aI0
aI0
aI0
aI0
aI0
aI0
aI0
aI0
aI0
ag3
(g7
S'\x90\x13Jx\x07\xb3\x8f?'
p401
tp402
Rp403
aI0
aI0
aI0
aI0
aI0
ag3
(g7
S'\xa6q\x91\x18;\x97\xdf?'
p404
tp405
Rp406
aI0
ag3
(g7
S'{\xde9\xe2*o\x97?'
p407
tp408
Rp409
aI0
aI0
aI0
aI0
aI0
aI0
aI0
aI0
aI0
aI0
ag3
(g7
S'\xf3\x81\xb9\xf6:\xa1\xb9?'
p410
tp411
Rp412
aI0
aI0
aI0
aI0
aI0
aI0
aI0
aI0
aI0
aI0
aI0
aI0
aI0
aI0
aI0
aI0
aI0
aI0
ag3
(g7
S'\xb3\xde\xdeo\xc4\x1a\xa2?'
p413
tp414
Rp415
asS'assemblage-930-730'
p416
(lp417
I0
aI0
aI0
aI0
aI0
aI0
aI0
aI0
aI0
aI0
aI0
aI0
aI0
aI0
aI0
aI0
aI0
aI0
aI0
aI0
aI0
aI0
aI0
aI0
aI0
aI0
aI0
aI0
aI0
aI0
aI0
ag3
(g7
S'|\xe9\xf1\xe1\x14C\x91?'
p418
tp419
Rp420
aI0
aI0
aI0
aI0
aI0
ag3
(g7
S'\xb2}\xf2A\x8a\xea\xa8?'
p421
tp422
Rp423
aI0
ag3
(g7
S'<O\x18E\x9bE\xb0?'
p424
tp425
Rp426
aI0
aI0
aI0
aI0
aI0
aI0
aI0
aI0
aI0
aI0
aI0
aI0
aI0
ag3
(g7
S'\xfd\xbc\x9a\x17|\x90\xc7?'
p427
tp428
Rp429
aI0
aI0
aI0
aI0
ag3
(g7
S'\xe2\x85i\x801{\xb2?'
p430
tp431
Rp432
aI0
aI0
aI0
aI0
aI0
aI0
aI0
aI0
aI0
aI0
aI0
aI0
aI0
aI0
aI0
aI0
aI0
aI0
aI0
aI0
aI0
aI0
aI0
aI0
aI0
aI0
aI0
ag3
(g7
S'\xd1j\xfdk^`\xe2?'
p433
tp434
Rp435
aI0
aI0
aI0
aI0
aI0
aI0
aI0
aI0
ag3
(g7
S'J8\xe6\xfc?B\xad?'
p436
tp437
Rp438
asS'assemblage-924-643'
p439
(lp440
I0
aI0
aI0
aI0
aI0
aI0
aI0
aI0
aI0
aI0
aI0
aI0
aI0
aI0
aI0
aI0
aI0
aI0
aI0
aI0
aI0
aI0
aI0
aI0
ag3
(g7
S'\xa2\xe6\xbe9)\xeb\xe0?'
p441
tp442
Rp443
aI0
aI0
aI0
aI0
aI0
aI0
aI0
aI0
aI0
aI0
aI0
aI0
aI0
aI0
aI0
aI0
aI0
aI0
aI0
aI0
aI0
aI0
aI0
aI0
aI0
aI0
aI0
aI0
aI0
aI0
aI0
aI0
aI0
aI0
aI0
aI0
aI0
aI0
aI0
aI0
aI0
aI0
aI0
aI0
aI0
aI0
aI0
aI0
aI0
aI0
aI0
aI0
aI0
aI0
ag3
(g7
S'%\x11\xbcU\xd3\xbb\xdb?'
p444
tp445
Rp446
aI0
aI0
aI0
aI0
aI0
aI0
aI0
aI0
aI0
aI0
aI0
aI0
aI0
aI0
aI0
ag3
(g7
S'i\r\xd2{-\xed\xa8?'
p447
tp448
Rp449
asS'assemblage-949-751'
p450
(lp451
I0
aI0
aI0
aI0
aI0
aI0
aI0
aI0
aI0
aI0
aI0
aI0
aI0
aI0
aI0
aI0
aI0
aI0
aI0
aI0
aI0
aI0
aI0
aI0
aI0
aI0
aI0
aI0
aI0
aI0
aI0
ag3
(g7
S'y\xf5.\x1e+U\x86?'
p452
tp453
Rp454
aI0
aI0
aI0
aI0
aI0
ag3
(g7
S'\xf9\xb8\xd06u\xa7\xa3?'
p455
tp456
Rp457
aI0
ag3
(g7
S'_\xa2\x7f\xe5v\xb4\xaf?'
p458
tp459
Rp460
aI0
aI0
aI0
aI0
aI0
aI0
aI0
aI0
aI0
aI0
aI0
aI0
aI0
ag3
(g7
S'G\xdf\x8e}G\n\xcc?'
p461
tp462
Rp463
aI0
aI0
aI0
aI0
ag3
(g7
S'\xfb\x9b\xe8\xc3\xfdT\xb1?'
p464
tp465
Rp466
aI0
aI0
aI0
aI0
aI0
aI0
aI0
aI0
aI0
aI0
aI0
aI0
aI0
aI0
aI0
aI0
aI0
aI0
aI0
aI0
aI0
aI0
aI0
aI0
aI0
aI0
aI0
ag3
(g7
S'S\x8b\x86$\x1eV\xe2?'
p467
tp468
Rp469
aI0
aI0
aI0
aI0
aI0
aI0
aI0
aI0
ag3
(g7
S'\xd3\xa4\xe1\xab\xa8V\xa7?'
p470
tp471
Rp472
asS'assemblage-297-490'
p473
(lp474
I0
aI0
aI0
aI0
aI0
aI0
aI0
aI0
aI0
aI0
aI0
ag3
(g7
S'\xa2\xe4\xdf*r\xa2\xb5?'
p475
tp476
Rp477
aI0
ag3
(g7
S'2\x1f\x00,QI\x9b?'
p478
tp479
Rp480
aI0
aI0
aI0
aI0
aI0
aI0
aI0
aI0
aI0
ag3
(g7
S'\xf4/\x92D\xc4\xfe\xbc?'
p481
tp482
Rp483
aI0
aI0
aI0
aI0
aI0
aI0
aI0
aI0
aI0
aI0
aI0
aI0
aI0
aI0
ag3
(g7
S'i2\x943\xa50\xae?'
p484
tp485
Rp486
ag3
(g7
S'~\x1bpb\xb8N\xaf?'
p487
tp488
Rp489
aI0
aI0
aI0
aI0
aI0
aI0
aI0
aI0
aI0
aI0
aI0
aI0
aI0
ag3
(g7
S'\xce\xf34\xae\x981\xe4?'
p490
tp491
Rp492
aI0
aI0
aI0
aI0
aI0
aI0
aI0
aI0
aI0
ag3
(g7
S'|\x0f\xf3\xddE\xe5\x8c?'
p493
tp494
Rp495
aI0
aI0
aI0
aI0
aI0
aI0
aI0
aI0
aI0
aI0
aI0
aI0
aI0
aI0
aI0
aI0
aI0
aI0
aI0
aI0
aI0
aI0
aI0
aI0
aI0
aI0
aI0
aI0
aI0
aI0
aI0
ag3
(g7
S':\xe9\xb7\xd5g\xf6\x9b?'
p496
tp497
Rp498
asS'assemblage-403-819'
p499
(lp500
I0
aI0
aI0
aI0
aI0
aI0
aI0
aI0
aI0
aI0
aI0
aI0
aI0
aI0
aI0
aI0
aI0
aI0
aI0
aI0
aI0
aI0
aI0
aI0
aI0
aI0
aI0
aI0
aI0
aI0
aI0
aI0
aI0
aI0
aI0
aI0
aI0
aI0
aI0
ag3
(g7
S'"\xf7\xc7\xcc\x148\xe6?'
p501
tp502
Rp503
aI0
aI0
aI0
aI0
aI0
ag3
(g7
S'e\xb5\xfd\xb2*\xc8\x9a?'
p504
tp505
Rp506
aI0
aI0
aI0
aI0
aI0
aI0
aI0
aI0
ag3
(g7
S'\xc1\x11\xc3\xacU~\x9d?'
p507
tp508
Rp509
aI0
aI0
aI0
aI0
aI0
aI0
aI0
aI0
aI0
aI0
aI0
aI0
aI0
aI0
aI0
aI0
ag3
(g7
S'\x1f}\x1dci\x85\xcc?'
p510
tp511
Rp512
aI0
aI0
aI0
aI0
aI0
aI0
aI0
aI0
aI0
aI0
aI0
aI0
aI0
aI0
aI0
aI0
aI0
aI0
aI0
aI0
aI0
aI0
aI0
ag3
(g7
S'F\xda\xee\x1d\xbci\xa4?'
p513
tp514
Rp515
asS'assemblage-389-812'
p516
(lp517
I0
aI0
aI0
aI0
aI0
aI0
aI0
aI0
aI0
aI0
aI0
aI0
aI0
aI0
aI0
aI0
aI0
aI0
aI0
aI0
aI0
aI0
aI0
aI0
aI0
aI0
aI0
aI0
aI0
aI0
aI0
aI0
aI0
aI0
aI0
aI0
aI0
aI0
aI0
ag3
(g7
S'Dt\xebB5\x19\xe6?'
p518
tp519
Rp520
aI0
aI0
aI0
aI0
aI0
ag3
(g7
S'\xaf\xca\xeb^\xbd/\x9a?'
p521
tp522
Rp523
aI0
aI0
aI0
aI0
aI0
aI0
aI0
aI0
ag3
(g7
S'\xe9L\x8d\xd2x\xdf\xa0?'
p524
tp525
Rp526
aI0
aI0
aI0
aI0
aI0
aI0
aI0
aI0
aI0
aI0
aI0
aI0
aI0
aI0
aI0
aI0
ag3
(g7
S'B\xb3~|W5\xcb?'
p527
tp528
Rp529
aI0
aI0
aI0
aI0
aI0
aI0
aI0
aI0
aI0
aI0
aI0
aI0
aI0
aI0
aI0
aI0
aI0
aI0
aI0
aI0
aI0
aI0
aI0
ag3
(g7
S'NA2\xbc\x08\x1f\xaa?'
p530
tp531
Rp532
as.