ccopy_reg
_reconstructor
p0
(cnetworkx.classes.graph
Graph
p1
c__builtin__
object
p2
Ntp3
Rp4
(dp5
S'node'
p6
(dp7
S'assemblage-779-793'
p8
(dp9
S'name'
p10
g8
ssS'assemblage-485-727'
p11
(dp12
g10
g11
ssS'assemblage-256-569'
p13
(dp14
g10
g13
ssS'assemblage-793-908'
p15
(dp16
g10
g15
ssS'assemblage-442-239'
p17
(dp18
g10
g17
ssS'assemblage-187-439'
p19
(dp20
g10
g19
ssS'assemblage-611-1005'
p21
(dp22
g10
g21
ssS'assemblage-405-845'
p23
(dp24
g10
g23
ssS'assemblage-777-215'
p25
(dp26
g10
g25
ssS'assemblage-836-438'
p27
(dp28
g10
g27
ssS'assemblage-173-779'
p29
(dp30
g10
g29
sssS'graph'
p31
(dp32
S'is_directed'
p33
I00
ssS'edge'
p34
(dp35
g8
(dp36
g11
(dp37
S'weight'
p38
S'MMDMMMUMUMMMMMMMMMMUMMMMMMMDMMMMMMUMMMMMMMMMMMMMMMMMMMMMMMMMMMMMMMMUMMMMMMMMMMMMMMMMMMMMMMMMMMMMMDMMMMMMMMMMUMMUMMMMMMMMMMMMMMMMDUMMMMMMMMMMMMMMMMMMMMMMMMMMMMMMMMMMMMMDMMMMMMMMMMMDMMMMUMMDMMMMMMMMMMUMMMMMMMMMMMMMMMMMMMMMMMMMMMMMMMMMMUMMMMMMMMMMMMMMMMMMMMMMUMMMMMMMMMMMMMMMMMMMMMMMMMMMMMMMMDMMMMMUMDMMMMMMMMMMMMMMMMMMMMMMMMMMMMMMMMMMMMMMUDMMMMMMMDMMMMMMMDMMMMMMMMMMMMUMMMMMMMMMMMDMMMMMMMMMMMMMMMMMDMDMMMMMMMMMMDMMMMMMMMMMMMMMUMMMMMUMUMMMUDMMMMMMMMMMMMDMMMMMDMMMMMMMMMMMMDMMMMMMMMMMDMMMMMDMMMMMMMMMMMMMMMMMMMMMMMMMMMMMMMMMMUMMMMMMMMDMMMMMMMMMMMMMMMMMMMMMMMMMMMMMMMMMMMMMMMMMMMMMMMMMMMMDMMMMMMMMMDD'
p39
ssg13
(dp40
g38
S'MMDUMMDMMMMMUMMMMMMMMMMMMMMDMMMMMMMMMMMMUMMMMMMMMMMMMMMMMMMMMMMMMMMMMMMMMMMMMMUMMMMMMMMMMMMMMMMUMDMMMMMMMMMMMMMMMUMMMMMMMMMMMMMMDMMMMMMMMMMMUMMMMMMMMMMMMMMMMMMMMMMMMMMDMMMMMMMMMMMDMMMMMMMDMMMMMMMMMMMMMMMMMMUMMMMMMMMMMMMMMMMMMMMMMMMMMMMMMMMMMMMMMMMMMMMMMMMMMMMUMMMMMMMMMMMMMMMMMMMMMMUMMMMMMDMMMMMDMDMMMMMMMMMMMMMMMMMMMMMMMMUMMMMMMMMMMMMMMDUMMMMUMDMMMMMMMDMMMMMMMMMMMUMMMMMMMMMMMMDMMMMMMMMMMMMMMMMUDMDMMMUMMMMMMDMMMMMMMMMMMMMMMMMMMMMMMMMMMDMMMMMMMMUMMMDMMUMMDMMMMMMMMMMMMDMMMMMMMMMMDMMMMMDMMMMMMMMMMMMMMMMMMMMMMMMMMMMMMMMMMMMMMMMMMMDMMMMMMMMMMMMMMMMMUMMMMMMMMMMMMMMMMMMMMMMMUMMMMMMMMMMDMMMMMUMMMDM'
p41
ssg15
(dp42
g38
S'MMDMMMDMMMMMUMMMMMMMMMMMMMMDMMMMMMMMMMMMMMMMMMMMMMMMMMMMMMMMMMUMMMMMMMMMMMMMMMMMMMMMMMMMMMMMMMMUMDMMMMMMMMMMMMMMMMMUMMMMMMMMMMMMDMMMMMMMMMMMMMMMMMMMMMMMMMMMUMMMMMMMMMMDMMMMMMMMMMMDMMMMMMMDMMMMMMMMMMMMMMMMMMMMMMMMMMMMMMMMMMMMMMMMMMMMMMMMMMMUMMMMMMMMMMMMMMMMMMUMMMMMMMMMMMMMMMMMMMMMMMUMMMMMMDMMMMMDMDMMMMMMMMMMMMMMMMMMMMMMMMMMMMMMMMMMMMMMMDMMMMMMMDMUMMMMMDMMMMMMMMMMMMMMMMMMMUMMMMDMMMMMMMMMMMMMMMMMDMDMMMMMMMUMMDMUMMMMMMMUMMMMMMMMMMMMMMMMMDUMMMMMMMMMMMDMUMMMDMMMMMMMMMMMMDMMMMMMMMMMDMMMMMDMMUMMMMMMMMMMMMMMMMMMMMMMMMMMMMMMMMMMMMMMMMDMMMMMMMMMMMMMMMMMMMMMMMMMMMMMMMMMMMMMMMMMMMMMMMMMUUMDMMUMMMMMMDD'
p43
ssg17
(dp44
g38
S'MMDMMMDUMMMMMMMMMMMMMMMMMMMDUMMMMMMMUMMMMMMMMMMMMMMMMMMMMMMMMMMMMMMMUMMMMMMMMMMMMMMMMMMMMMMMMMMMMDMMMMMMMMMMMMMMMMMMMMMMMMMMMMMMDMMMMMMMMMMMMMMMMMMMMMMMMMMMMMMMMMMMMMMDMMMUMMMMMMMDMMMMMMMDMMMMMMMMMMMMMMMMMMMMMMMMMMMMUMMMUMMMMMMMMUMMMMMMMMMMMMMMMMMUMMMMMMMMMMMMMMMMMMMMMMMMMMMUMMMMMMMUMMMMMDMMMMMDMDMMMMMMMMMMMMMMMMMMMMMMMMMMMMMMMMMMMMMMMDMMMMMMMDMMUMMMMDMMMMMMMMMMMMMMMMMMMMMMMUDMMMMMMMMMMMMMMMMMDMDMMMMMMMMMMDMMMMMMMMMMMMMMMMMMMMMMMMMUUDMMMMMMMMMMMMDMMMMMDMMMMMMMMMMMMDMMMMMMMMMMDMMMMMDMMMMMMMMMMMMMMMMMMMMUMMMMMMMMMMMMMMMMMMMMMMDMMMUMMMMMMMMMMMMMMMMMMMMMMMMMMMMMUMUMMMMMMMMMMMMUMMMDMMMMMMMMMDD'
p45
ssg19
(dp46
g38
S'MMDMUMDMMMMMMMMMMMMMMMMMMMMDMMMMMMMMMMMMMMMUMMMMMMMMMMMMMMMMMMMMMMMMMMMMMMMMMMMMMMMMMMMMMMMMUMMMMDMMMMMMMMMUMMMMMMMMMMMMMMMMMMMMDMMMMMMMMMMMMMMMMMMMMMMMMMMMMMMMMMMMMMMDMMMMMMMMMMMDMMMMMMMDMMMMMMMMMMMMMMMMMMMMMMMMMMMMMMUMMMMMMMMMMMMMMMMMMMMMMMMUMMMMMMMMMMMMMMMMMMMMMMMMMMMMMMMMMMMMMMMMUMMUMDMMMMMDMDMMMMMMMMMMMMMMMMMUMMMMMMMMMMMMMMMMUMMMMDMMMMMMMDMMMMUMMDMMMMMMMMMMMMMMMMMMMMMMMMDMMMMMMMMMMMMMMMMMDMDMMMMMMMMMMDMMMMMUMMMMMMMMMMMMMMMMMMMMMDMMMMMMMMMMMMDMMMMMDMMMMMMMMMMMMDMMMMMMMMMMDMMMMMDMMMMMMMMMMMMMMUMMMMMMMMUMMMMMMMMMMMMMMMUMMMDMMMMMMMMMMMMUMMMMMMMMMMUMMMMMMMMMMMMMMMMMMMMMMMMMMMMDMMMMMMMMMDD'
p47
ssg21
(dp48
g38
S'MMDMMMDMMMMMMMMMMMMMMMMMMMMDMMMMMMMMMMMMMMMMMMMMMMMMMMMUMMMMMMMMMMMMMMMMMMMMMMMMMMMMMMMMMMMMMMMMUDMMMMMMMMMMMMMMMMMMMMMMMMMMMMMMDMMMMMMMMMMMMMMMMMMMMMMMMMMMMMMMMMMMMMMDMMUMMUMMMMMDMMMMMMMDMMMMMMMMMMMMMMMMMMMMMMMMMMMMMMMMMMMMMMMMMMMMMMMMMMUMMMMMMMMMMUMMMMMMMMMMMMMMMMMMMMMMMMMMMMMMMMMMMMMMMDMMMMMDMDMMMMMMMMUMMMMMMMMMMMMMMMMMMMMMUMMMMUMMMDMUMMMMMDMMMMMMMDMMMMUMMMMMMMMMMMMMMMMMMMDMMMMMMMMMMMMMMMMMDUDMMMMMMMMMMDMMMMMMMMMMMMMMMMMMUMMMMMMMMDMMMMMMMMMUMMDMMMMUDMMMMMMMMMMMMDMMMMMMMMMMDMMMMMDMMMMMMMMMUMMMMMMUMMMMMMMMMMMMMMMMMMMMMMMMMMDMMMMMMMMMMMMMMMMMMMMMMMUMMMMMMMMMMMMMMMMMMMMUMMMMMMMDMMMMMMMMMDD'
p49
ssg23
(dp50
g38
S'MMDMMMDMMMMUMMMMMMMMMMMMMMMDMMMMMMMMMMMMMMMMMMMMMMMMMMMMMMMMMMMMMMMMMMMMMMMMMMMUMMMMMMMMMMMMUMMMMDMMUMMMMMMMMMMMMMMMMMMMMMMMMMMMDMMMMMMMMMMMMMMMMMMMMMMMMMMMMMMMMMMMUMMDMMUMMMMMMMMDMMMMMMMDMMMMMUMMMMMMMMMMMMMMMMMMMMMMMMMUMMMUMMMMMUMMMMMMMMMMMMMMMMMMMMMMMMMMMMMMMMMMMMMUMMMMMMMMMMMMMMMMMUMMMDMMMMMDMDMMMMMMMMMMMMMUMMMMMMMMMMMMMMMUMMMMMMMMMDMMMMMMUDMMMMMMMDMMMMMUMMMMMMMMMMMMMMMMMMDMMMMMMMMMMMMMMUMMDMDMMMMMMMMMMDMMUMMMMMMMMMMMMMMMMMMMMMUMMDMMMMMMMMMMMMDMMMMMDMMMMMMMMMMMMDMMMMMMMMMMDMMMMMDMMMMMMMMMMMMUMMMMMMMMMMMMMMMMMMMMMMMMMMMMMMDMMMMMMMMMMMMMMMUMMMMMMMUMMMMMMMMMMMMMMMMMMMMMMMMMMMMDMMMMMMMMMDD'
p51
ssg25
(dp52
g38
S'MMDMMMDMMMMMMMMMMMMMMMMMMMMDMUMMMMMMMMUMMMMMMUMMMMMMUMMMMMMMMMMMMMMMMMMMMMMMMMMMMMMMMMMMMMMMMMMMMDMMMMMMUMMMMMMMMMMMMMMMMMMMMMMMDMMMMMMMUMMMMMMMMMMMMUMUMMMMMMMMMMUMMMMDMMMMMMMMMMMDMMMMMMMDMMMMMMMMMMMMMMMMMMMMMMMMMMMMMMMMMMMMMMMMMUMMMMMMMMMMMMMMMMMMMMMMMMMMMMMMMMMMMMMMMMMMMMMMMUMMMMMMMMMMMDMUMMMUMDMMMMMMMMMMMMMMMMMMMMMMMMMMMMMMMMMMMMMMMDMMMMMMMDMMMMMMMDMMMMMMMMMMMMMUMUMMMMMMMMDMMMMMMMMMMMMMMMMMDMDMMMMMMMMMMDMMMMMMMMMMMMMMMMMMMMMMMMMUMDMMMMMMMMMMMMDMMMMMDMMMMMMUMMMMUDMMMMMMMMMMDMMMMMDMMMMMMMMMMMMMMMMMMMMMMMMMMMMMMMMMMMMMMMMMMMDMMMMMMMMMMMMMMMMMMMMUMMMMMMMMMMMMUMMMMMMMMMMMMUMMMMMDMMMMMMMMMDD'
p53
ssg27
(dp54
g38
S'MMDMMMDMMMMMMMMMMMMMUMMMMMMDMMMMMMMMMMMMMMMMMMMMMMMMMMMMMMMMMMMMMMMMMMMMMMMMMMMMMMMMMMMMMMMMMMMMMDMMMMMMMMMMMMMMMMMMMMMMMMUMMMMMDMMMMMMMMMMMMMMUMMMMMMMMMMMMMMMMMMMMMMMDMMMMMMMMMMMDMMMMMUMDMMMMMMMMMMMMMMMMMMMMMMMUMMMMMMMMMMMMMMMMMMMMMMMMMMMMMMUMMMMMMMUMMMMMMMMMMMMMMMMMMMMMMMMMMMMMMMMMMUMMMDMMMMMDMDMMMUMMMMMMMMMMMMMMMMMMMUMMMUMMMMMMMMMMMDMMMMMMMDMMMMUMMDMMMMMMMMMMMMMMMMMMMMMMMMDMMMMMMMMMMMMMMMMMDMDMMUMMMMMMMDMMMMMUMMMMMMMMMMMMMMMMMMMMMDMMMMMMMMMMMMDMMMMMDMUMMMUMMMMMMDMMMMMMMMMMDMMMMMDMMMMMMMMMMMMMMMMMMMMMMMMMMMMMMMMMMMMMMMMMMMDMMMMMMMMMMMUMMMMMMMMMMMMMMMMMUMMMMMMMMMMMMMMMMMUMMMMDMMMMMMMMMDD'
p55
ssg29
(dp56
g38
S'MMDMMMDMMMMMMMMMMMUMMMMMMMMDMMMMMUMMMMMMMMMMMMMMMMMMMMMMMMMMUMMMMMMMMMMMMMMMMMMMMMMMMMMMMMMMMMMMMDMMMMMMMMMMMMMMMMMMMMMMMMMMMMMMDMMMMMMMMMMMMMMMMMMMMMMMMMMMMMMMMMMMMMMDMMMMMMMMMMMDMMMMMMMDMMMMMMMUMMMUMMMMMMMMMMMMMMMMMMMMMMMMMMMMMMMMMMMMMMMUMMMMMMMMMMMMMMMMMMUMMMMMMMMMMMMMMMMMMMMMMMMMMMMMMDMMMMMDMDMMMMMMMMMMMMMMMMMMMMMMMMMMMMMMMMMMMMMMMDMMMMMMMDMMMMMMMDMMMMMMMMMMMMMMMMMMUMMMMMDMMMMMMMMMMMMMMMMUDMDMUMMMMMMMMDMMMMMMMMMMMMMMMMMMMMMMMMMMMDMMMMMMMMMMMMDMMMMMDMMMMMMMMUMMMDMMMMMMMMMMDMMMMMDMMMMMMMMMMMMMMMMMMMMMMMMMMMMMMMMUMMMMMMMMMMDMMMMMMMMMMMMMMMMMMMMMUMMMMMMMMMMMMMMMMMMMMMMMMMMMMMUDMMMMMMMMMDD'
p57
sssg11
(dp58
g8
g37
sg13
(dp59
g38
S'MMMUMMDMDMMMUMMMMMMDMMMMMMMMMMMMMMDMMMMMUMMMMMMMMMMMMMMMMMMMMMMMMMMDMMMMMMMMMMUMMMMMMMMMMMMMMMMUMMMMMMMMMMMMDMMDMUMMMMMMMMMMMMMMMDMMMMMMMMMMUMMMMMMMMMMMMMMMMMMMMMMMMMMMMMMMMMMMMMMMMMMMDMMMMMMMMMMMMMDMMMMMMMUMMMMMMMMMMMMMMMMMMMMMMMMMMDMMMMMMMMMMMMMMMMMMMMMMDMMUMMMMMMMMMMMMMMMMMMMMMMUMMMMMMMMMMMMDMMMMMMMMMMMMMMMMMMMMMMMMMMUMMMMMMMMMMMMMDMUMMMMUMMMMMMMMMMMMMMMMMMMMMUDMMMMMMMMMMMMMMMMMMMMMMMMMMMMUMMMMMMUMMMMMMMMMMMMMMMMMMMMMDMMMMMDMDMMMDMMMMMMMMMUMMMMMMUMMMMMMMMMMMMMMMMMMMMMMMMMMMMMMMMMMMMMMMMMMMMMMMMMMMMMMMMMMMMMMMMMMMDMMMMMMMMMMMMMMMMMMMMMMMMMMUMMMMMMMMMMMMMMMMMMMMMMMUMMMMMMMMMMMMMMMMUMMMMU'
p60
ssg15
(dp61
g38
S'MMMMMMDMDMMMUMMMMMMDMMMMMMMMMMMMMMDMMMMMMMMMMMMMMMMMMMMMMMMMMMUMMMMDMMMMMMMMMMMMMMMMMMMMMMMMMMMUMMMMMMMMMMMMDMMDMMMUMMMMMMMMMMMMMDMMMMMMMMMMMMMMMMMMMMMMMMMMUMMMMMMMMMMMMMMMMMMMMMMMMMMMDMMMMMMMMMMMMMDMMMMMMMMMMMMMMMMMMMMMMMMMMMMMMMMMMDMMMMMUMMMMMMMMMMMMMMMMDMUMMMMMMMMMMMMMMMMMMMMMMMUMMMMMMMMMMMMDMMMMMMMMMMMMMMMMMMMMMMMMMMMMMMMMMMMMMMMMDMMMMMMMMMMUMMMMMMMMMMMMMMMMMMDMMMMMMUMMMMMMMMMMMMMMMMMMMMMMMMMMMMMMMMUMMMMUMMMMMMMUMMMMDMMMMMDMDMMMDMUMMMMMMMMMMMMMUMMMMMMMMMMMMMMMMMMMMMMMMMMMMMMMMMMMMUMMMMMMMMMMMMMMMMMMMMMMMMMMMMMMMDMMMMMMMMMMMMMMMMMMMMMMMMMMMMMMMMMMMMMMMMMMMMMMMMMMMMMMMMMMUUMMMMUMMMMMMMD'
p62
ssg17
(dp63
g38
S'MMMMMMDUDMMMMMMMMMMDMMMMMMMMUMMMMMDMUMMMMMMMMMMMMMMMMMMMMMMMMMMMMMMDUMMMMMMMMMMMMMMMMMMMMMMMMMMMMMMMMMMMMMMMDMMDMMMMMMMMMMMMMMMMMDMMMMMMMMMMMMMMMMMMMMMMMMMMMMMMMMMMMMMMMMMUMMMMMMMMMMMMDMMMMMMMMMMMMMDMMMMMMMMMMMMMMMMMUMMMUMMMMMMMMUMMMDMMMMMMMMMMMMMUMMMMMMMMDMMMMMMMMMMMMMMMMMMUMMMMMMMUMMMMMMMMMMMDMMMMMMMMMMMMMMMMMMMMMMMMMMMMMMMMMMMMMMMMDMMMMMMMMMMMUMMMMMMMMMMMMMMMMMDMMMMMMMMMMUMMMMMMMMMMMMMMMMMMMMMMMMMMMMMMMMMMMMMMMMMMMMMMDMMMMMDMDMMUUMMMMMMMMMMMMMMMMMMMMMMMMMMMMMMMMMMMMMMMMMMMMMMMMMMMMMMMMMMMMMMMMMMMMMMUMMMMMMMMMMMMMDMMMMMMMMMMMMUMMMMMMMMMMMMMMMMMMMMMMMMMMMMMUMUMMMMMMMMMMMMUMMMMMMMMMMMMMMD'
p64
ssg19
(dp65
g38
S'MMMMUMDMDMMMMMMMMMMDMMMMMMMMMMMMMMDMMMMMMMMUMMMMMMMMMMMMMMMMMMMMMMMDMMMMMMMMMMMMMMMMMMMMMMMMUMMMMMMMMMMMMMMUDMMDMMMMMMMMMMMMMMMMMDMMMMMMMMMMMMMMMMMMMMMMMMMMMMMMMMMMMMMMMMMMMMMMMMMMMMMMDMMMMMMMMMMMMMDMMMMMMMMMMMMMMMMMMMUMMMMMMMMMMMMMMDMMMMMMMMMUMMMMMMMMMMMMDMMMMMMMMMMMMMMMMMMMMMMMMMMMUMMUMMMMMMMDMMMMMMMMMMMMMMMMMMMUMMMMMMMMMMMMMMMMUMMMDMMMMMMMMMMMMMUMMMMMMMMMMMMMMMDMMMMMMMMMMMMMMMMMMMMMMMMMMMMMMMMMMMMMMMMMMMMMMMMUMMMMMMMMDMMMMMDMDMMMDMMMMMMMMMMMMMMMMMMMMMMMMMMMMMMMMMMMMMMMMMMMMMMMMMMMMMMMMMMMMMMMMUMMMMMMMMUMMMMMMMMMMDMMMMUMMMMMMMMMMMMMMMMUMMMMMMMMMMUMMMMMMMMMMMMMMMMMMMMMMMMMMMMMMMMMMMMMMMD'
p66
ssg21
(dp67
g38
S'MMMMMMDMDMMMMMMMMMMDMMMMMMMMMMMMMMDMMMMMMMMMMMMMMMMMMMMUMMMMMMMMMMMDMMMMMMMMMMMMMMMMMMMMMMMMMMMMUMMMMMMMMMMMDMMDMMMMMMMMMMMMMMMMMDMMMMMMMMMMMMMMMMMMMMMMMMMMMMMMMMMMMMMMMMUMMUMMMMMMMMMMDMMMMMMMMMMMMMDMMMMMMMMMMMMMMMMMMMMMMMMMMMMMMMMMMDMMMMUMMMMMMMMMMUMMMMMMDMMMMMMMMMMMMMMMMMMMMMMMMMMMMMMMMMMMMMMDMMMMMMMMMMUMMMMMMMMMMMMMMMMMMMMMUMMMMUMMDMMUMMMMMMMMMMMMMMMMMMUMMMMMMMDMMMMMMMMMMMMMMMMMMMMMMMMMMMMMMUMMMMMMMMMMMMMMMMMMMMMMMMMMDMMMUMDMDMMMDMMMMMMMMMMUMMMMMMMUMMMMMMMMMMMMMMMMMMMMMMMMMMMMMMMMMMMMMMMMUMMMMMMUMMMMMMMMMMMMMMMMMDMMMMMMMMMMMMMMMMMMMMMMMMMMMMMMMMUMMMMMMMMMMMMMMMMMMMMUMMMMMMMMMMMMMMMMMMU'
p68
ssg23
(dp69
g38
S'MMMMMMDMDMMUMMMMMMMDMMMMMMMMMMMMMMDMMMMMMMMMMMMMMMMMMMMMMMMMMMMMMMMDMMMMMMMMMMMUMMMMMMMMMMMMUMMMMMMMUMMMMMMMDMMDMMMMMMMMMMMMMMMMMDMMMMMMMMMMMMMMMMMMMMMMMMMMMMMMMMMMUMMMMMUMMMMMMMMMMMMMDMMMMMMMMUMMMMDMMMMMMMMMMMMMMMMMMMMUMMMUMMMMMUMMMDMMMMMMMMMMMMMMMMMMMMMMDMMMMMMMMMMUMMMMMMMMMMMMMMMMMUMMMMMMMMMDMMMMMMMMMMMMMMMUMMMMMMMMMMMMMMMUMMMMMMMMDMMMMMMMUMMMMMMMMMMMMMMUMMMMMMDMMMMMMMMMMMMMMMMMMMMMMMMMMUMMMMMMMMMMMMMMMMMMUMMMMMMMMMMMDMMMMMDMDMUMDMMMMMMMMMMMMMMMMMMMMMMMMMMMMMMMMMMMMMMMMMMMMMMMMMMMMMMMMMMMMMMUMMMMMMMMMMMMMMMMMMMMMDMMMMMMMMMMMMMMMMMMMMMMMMUMMMMMMMUMMMMMMMMMMMMMMMMMMMMMMMMMMMMMMMMMMMMMMMM'
p70
ssg25
(dp71
g38
S'MMMMMMDMDMMMMMMMMMMDMMMMMMMMMUMMMMDMMMUMMMMMMUMMMMMMUMMMMMMMMMMMMMMDMMMMMMMMMMMMMMMMMMMMMMMMMMMMMMMMMMMMUMMMDMMDMMMMMMMMMMMMMMMMMDMMMMMMUMMMMMMMMMMMMUMUMMMMMMMMMMUMMMMMMMMMMMMMMMMMMMMMDMMMMMMMMMMMMMDMMMMMMMMMMMMMMMMMMMMMMMMMMMMMMUMMMDMMMMMMMMMMMMMMMMMMMMMMDMMMMMMMMMMMMMMMMMMMMUMMMMMMMMMMMMMUMMMUMMMMMMMMMMMMMMMMMMMMMMMMMMMMMMMMMMMMMMMMDMMMMMMMMMMMMMMMMMMMMMMMMMMMMMDUMUMMMMMMMMMMMMMMMMMMMMMMMMMMMMMMMMMMMMMMMMMMMMMMMMMMMMMMDMMMMMDMDMMUDMMMMMMMMMMMMMMMMMMMMMMMMMMUMMMMUMMMMMMMMMMMMMMMMMMMMMMMMMMMMMMMMMMMMMMMMMMMMMMMMMMMMDMMMMMMMMMMMMMMMMMMMMMMMMMMMMMUMMMMMMMMMMMMUMMMMMMMMMMMMUMMMMMMMMMMMMMMMMD'
p72
ssg27
(dp73
g38
S'MMMMMMDMDMMMMMMMMMMDUMMMMMMMMMMMMMDMMMMMMMMMMMMMMMMMMMMMMMMMMMMMMMMDMMMMMMMMMMMMMMMMMMMMMMMMMMMMMMMMMMMMMMMMDMMDMMMMMMMMMMUMMMMMMDMMMMMMMMMMMMMUMMMMMMMMMMMMMMMMMMMMMMMMMMMMMMMMMMMMMMMMDUMMMMMMMMMMMMDMMMMMMMMMMMMUMMMMMMMMMMMMMMMMMMMMMDMMMMMMMMUMMMMMMMUMMMMMDMMMMMMMMMMMMMMMMMMMMMMMMMMMMUMMMMMMMMMDMMMMMUMMMMMMMMMMMMMMMMMMMUMMMUMMMMMMMMMMDMMMMMMMMMMMMMUMMMMMMMMMMMMMMMDMMMMMMMMMMMMMMMMMMMMMMMMMMMMMMMMMMUMMMMMMMMMMMMMUMMMMMMMMDMMMMMDMDMMMDMMMMMMMMMMMMMMMMMMMMMUMMMUMMMMMMMMMMMMMMMMMMMMMMMMMMMMMMMMMMMMMMMMMMMMMMMMMMMMMMMMMMDMMMMMMMMMMMMMMMMMMMMUMMMMMMMMMMMMMMMMMUMMMMMMMMMMMMMMMMMUMMMMMMMMMMMMMMMD'
p74
ssg29
(dp75
g38
S'MMMMMMDMDMMMMMMMMMUDMMMMMMMMMMMMMUDMMMMMMMMMMMMMMMMMMMMMMMMMUMMMMMMDMMMMMMMMMMMMMMMMMMMMMMMMMMMMMMMMMMMMMMMMDMMDMMMMMMMMMMMMMMMMMDMMMMMMMMMMMMMMMMMMMMMMMMMMMMMMMMMMMMMMMMMMMMMMMMMMMMMMDMMMMMMMMMMUMMDUMMMMMMMMMMMMMMMMMMMMMMMMMMMMMMMMMDMMMMMUMMMMMMMMMMMMMMMMDMUMMMMMMMMMMMMMMMMMMMMMMMMMMMMMMMMMMMMDMMMMMMMMMMMMMMMMMMMMMMMMMMMMMMMMMMMMMMMMDMMMMMMMMMMMMMMMMMMMMMMMMMMMMMDMMMMMUMMMMMMMMMMMMMMMMMMMMMMUMMMMUMMMMMMMMMMMMMMMMMMMMMMMDMMMMMDMDMMMDMMMMMMMMMMMMMMMMMMMMMMMMMMMMUMMMMMMMMMMMMMMMMMMMMMMMMMMMMMMMMMMMMMMMMMMMMMMMMMMMMMUMDMMMMMMMMMMMMMMMMMMMMMMMMMMMMMMUMMMMMMMMMMMMMMMMMMMMMMMMMMMMMUMMMMMMMMMMMM'
p76
sssg13
(dp77
g8
g40
sg11
g59
sg15
(dp78
g38
S'MMMDMMMMMMMMUMMMMMMMMMMMMMMMMMMMMMMMMMMMDMMMMMMMMMMMMMMMMMMMMMUMMMMMMMMMMMMMMMDMMMMMMMMMMMMMMMMDMMMMMMMMMMMMMMMMMDMUMMMMMMMMMMMMMMMMMMMMMMMMDMMMMMMMMMMMMMMMUMMMMMMMMMMMMMMMMMMMMMMMMMMMMMMMMMMMMMMMMMMMMMMMMMDMMMMMMMMMMMMMMMMMMMMMMMMMMMMMMMMUMMMMMMMMMMMMMMMMMMUDMMMMMMMMMMMMMMMMMMMMMMUMMMMMMMMMMMMMMMMMMMMMMMMMMMMMMMMMMMMMMMDMMMMMMMMMMMMMMMDMMMMDMMMUMMMMMMMMMMMMMMMMMDMMMMMMMUMMMMMMMMMMMMMMMMMMMMMDMMMMMMDMMMUMMMMUMMMMMMMUMMMMMMMMMMMMMMMMMMUMMMMMMMDMMMMMUDMMMMMMMMMMMMMMMMMMMMMMMMMMMMMMMMMMMUMMMMMMMMMMMMMMMMMMMMMMMMMMMMMMMMMMMMMMMMMMMMMMMMMMMMMMMMMMDMMMMMMMMMMMMMMMMMMMMMMMDMMMMMMMUUMMMMUMMDMMMMD'
p79
ssg17
(dp80
g38
S'MMMDMMMUMMMMDMMMMMMMMMMMMMMMUMMMMMMMUMMMDMMMMMMMMMMMMMMMMMMMMMMMMMMMUMMMMMMMMMDMMMMMMMMMMMMMMMMDMMMMMMMMMMMMMMMMMDMMMMMMMMMMMMMMMMMMMMMMMMMMDMMMMMMMMMMMMMMMMMMMMMMMMMMMMMMUMMMMMMMMMMMMMMMMMMMMMMMMMMMMMMMMMMDMMMMMMMMMUMMMUMMMMMMMMUMMMMMMMMMMMMMMMMMUMMMMMMMMMMMDMMMMMMMMMMMMMMMUMMMMMMDUMMMMMMMMMMMMMMMMMMMMMMMMMMMMMMMMMMMMMMDMMMMMMMMMMMMMMMDMMMMDMMMMUMMMMMMMMMMMMMMMMDMMMMMMMMMMMUMMMMMMMMMMMMMMMMMDMMMMMMDMMMMMMMMMMMMMMMMMMMMMMMMMMMMMMMMUUMMMMMMMMMDMMMMMMDMMMMMMMMMMMMMMMMMMMMMMMMMMMMMMMMMMMMMMMMMMMMMMMMMMMMMUMMMMMMMMMMMMMMMMMMMMMMMMMMUMMMMMMMMMMMMMDMMMMMMMMMMMMMMMUMUMMMMMDMMMMMMUMMMMMMMMMDMMMMD'
p81
ssg19
(dp82
g38
S'MMMDUMMMMMMMDMMMMMMMMMMMMMMMMMMMMMMMMMMMDMMUMMMMMMMMMMMMMMMMMMMMMMMMMMMMMMMMMMDMMMMMMMMMMMMMUMMDMMMMMMMMMMMUMMMMMDMMMMMMMMMMMMMMMMMMMMMMMMMMDMMMMMMMMMMMMMMMMMMMMMMMMMMMMMMMMMMMMMMMMMMMMMMMMMMMMMMMMMMMMMMMMMDMMMMMMMMMMMUMMMMMMMMMMMMMMMMMMMMMMMMUMMMMMMMMMMMMMMMDMMMMMMMMMMMMMMMMMMMMMMDMUMMUMMMMMMMMMMMMMMMMMMMMMMMMMMMUMMMMMMDMMMMMMMMMUMMMMMDMMMMDMMMMMMUMMMMMMMMMMMMMMDMMMMMMMMMMMMMMMMMMMMMMMMMMMMMDMMMMMMDMMMMMMMMMMMMUMMMMMMMMMMMMMMMMMMMMMMMMMMMMMMDMMMMMMDMMMMMMMMMMMMMMMMMMMMMMMMMMMMMMMMMMMMMMMMMMMMMMMUMMMMMMMMUMMMMMMMMMMMMMMMUMMMMMMMMMMMMMMMMUMMMMDMMMMMUMMMMMMMMMMMMMMMMMDMMMMMMMMMMMMMMMMDMMMMD'
p83
ssg21
(dp84
g38
S'MMMDMMMMMMMMDMMMMMMMMMMMMMMMMMMMMMMMMMMMDMMMMMMMMMMMMMMUMMMMMMMMMMMMMMMMMMMMMMDMMMMMMMMMMMMMMMMDUMMMMMMMMMMMMMMMMDMMMMMMMMMMMMMMMMMMMMMMMMMMDMMMMMMMMMMMMMMMMMMMMMMMMMMMMMUMMUMMMMMMMMMMMMMMMMMMMMMMMMMMMMMMMMDMMMMMMMMMMMMMMMMMMMMMMMMMMMMMMMUMMMMMMMMMMUMMMMMMMMMDMMMMMMMMMMMMMMMMMMMMMMDMMMMMMMMMMMMMMMMMMMMMMMUMMMMMMMMMMMMMMMDMMMMMUMMMMUMMMMDUMMMDMMMMMMMMMMMMMMUMMMMMMDMMMMMMMMMMMMMMMMMMMMMMMMMMMMMDMUMMMMDMMMMMMMMMMMMMMMMMMMMMMMMMUMMMMMMMMMMMMMMMMMDUMMMMMDMUMMMMMMMMMMMMMMMMMMMMMMMMMMMMMMMMMMMMMMMMUMMMMMMUMMMMMMMMMMMMMMMMMMMMMMMMMMMMMMMMMMMMMMMMMMMMDMMMMMUMMMMMMMMMMMMMMMMMDMMUMMMMMMMMMMMMMDMMMMD'
p85
ssg23
(dp86
g38
S'MMMDMMMMMMMUDMMMMMMMMMMMMMMMMMMMMMMMMMMMDMMMMMMMMMMMMMMMMMMMMMMMMMMMMMMMMMMMMMDUMMMMMMMMMMMMUMMDMMMMUMMMMMMMMMMMMDMMMMMMMMMMMMMMMMMMMMMMMMMMDMMMMMMMMMMMMMMMMMMMMMMMUMMMMMUMMMMMMMMMMMMMMMMMMMMMMUMMMMMMMMMMMMDMMMMMMMMMMMMUMMMUMMMMMUMMMMMMMMMMMMMMMMMMMMMMMMMMMMMDMMMMMMMUMMMMMMMMMMMMMMDMMUMMMMMMMMMMMMMMMMMMMMMMMMMUMMMMMMMMMMDMMMMUMMMMMMMMMMDMMMMDUMMMMMMMMMMMMMMUMMMMMDMMMMMMMMMMMMMMMMMMMMMMMMMMMUMDMMMMMMDMMMMMMMMMUMMMMMMMMMMMMMMMMMMMMMUMMMMMMMMMMMDMMMMMMDMMMMMMMMMMMMMMMMMMMMMMMMMMMMMMMMMMMMMMMMMMMMMUMMMMMMMMMMMMMMMMMMMMMMMMMMMMMMMMMMMMMMMMMMMMMMUMDMMMMMUMMMMMMMMMMMMMMMMMDMMMMMMMMMMMMMMMMDMMMMD'
p87
ssg25
(dp88
g38
S'MMMDMMMMMMMMDMMMMMMMMMMMMMMMMUMMMMMMMMUMDMMMMUMMMMMMUMMMMMMMMMMMMMMMMMMMMMMMMMDMMMMMMMMMMMMMMMMDMMMMMMMMUMMMMMMMMDMMMMMMMMMMMMMMMMMMMMMMUMMMDMMMMMMMMUMUMMMMMMMMMMUMMMMMMMMMMMMMMMMMMMMMMMMMMMMMMMMMMMMMMMMMMMDMMMMMMMMMMMMMMMMMMMMMMUMMMMMMMMMMMMMMMMMMMMMMMMMMMMMDMMMMMMMMMMMMMMMMMUMMMMDMMMMMMMMUMMMUMMMMMMMMMMMMMMMMMMMMMMMMMMDMMMMMMMMMMMMMMMDMMMMDMMMMMMMMMMMMMMMMMMMMMDMUMUMMMMMMMMMMMMMMMMMMMMMMMMMDMMMMMMDMMMMMMMMMMMMMMMMMMMMMMMMMMMMMMMMUMMMMMMMMMMDMMMMMMDMMMMMMMMMUMMMMUMMMMMMMMMMMMMMMMMMMMMMMMMMMMMMMMMMMMMMMMMMMMMMMMMMMMMMMMMMMMMMMMMMMMMMMMMMMMMMMDMMUMMMMMMMMMMMMUMMMMMMMDMMMMUMMMMMMMMMMMDMMMMD'
p89
ssg27
(dp90
g38
S'MMMDMMMMMMMMDMMMMMMMUMMMMMMMMMMMMMMMMMMMDMMMMMMMMMMMMMMMMMMMMMMMMMMMMMMMMMMMMMDMMMMMMMMMMMMMMMMDMMMMMMMMMMMMMMMMMDMMMMMMMMUMMMMMMMMMMMMMMMMMDMMUMMMMMMMMMMMMMMMMMMMMMMMMMMMMMMMMMMMMMMMMMUMMMMMMMMMMMMMMMMMMMMDMMMMUMMMMMMMMMMMMMMMMMMMMMMMMMMMMMMUMMMMMMMUMMMMMMMMDMMMMMMMMMMMMMMMMMMMMMMDMMUMMMMMMMMMMMMMMMUMMMMMMMMMMMMMMMMMMMUDMMUMMMMMMMMMMMMDMMMMDMMMMMMUMMMMMMMMMMMMMMDMMMMMMMMMMMMMMMMMMMMMMMMMMMMMDMMMMMUDMMMMMMMMMMMMUMMMMMMMMMMMMMMMMMMMMMMMMMMMMMMDMMMMMMDMMMMUMMMUMMMMMMMMMMMMMMMMMMMMMMMMMMMMMMMMMMMMMMMMMMMMMMMMMMMMMMMMMMMMMMMMMMMMMMMMMMMMMMMUMMMMMDMMMMMMMMMMMUMMMMMMMMMMMDMMMMMUMMMMMMMMMMDMMMMD'
p91
ssg29
(dp92
g38
S'MMMDMMMMMMMMDMMMMMUMMMMMMMMMMMMMMUMMMMMMDMMMMMMMMMMMMMMMMMMMUMMMMMMMMMMMMMMMMMDMMMMMMMMMMMMMMMMDMMMMMMMMMMMMMMMMMDMMMMMMMMMMMMMMMMMMMMMMMMMMDMMMMMMMMMMMMMMMMMMMMMMMMMMMMMMMMMMMMMMMMMMMMMMMMMMMMMMUMMMUMMMMMMDMMMMMMMMMMMMMMMMMMMMMMMMMMMMMMMMUMMMMMMMMMMMMMMMMMMUDMMMMMMMMMMMMMMMMMMMMMMDMMMMMMMMMMMMMMMMMMMMMMMMMMMMMMMMMMMMMMMDMMMMMMMMMMMMMMMDMMMMDMMMMMMMMMMMMMMMMMMMMMDMMMMMMUMMMMMMMMMMMMMMMMMMMMMMUMMMMUMDMMMMMMMMMMMMMMMMMMMMMMMMMMMMMMMMMMMMMMMMMMMDMMMMMMDMMMMMMMMMMMUMMMMMMMMMMMMMMMMMMMMMMMMMMMMMMMMMMMMMMMMMMMMMMMMMMMMMUMMMMMMMMMMMMMMMMMMMMMMMMMMMMDMMMUMMMMMMMMMMMMMMMMMMMDMMMMMMMMMUMMMMMMDMMMMD'
p93
sssg15
(dp94
g8
g42
sg11
g61
sg13
g78
sg17
(dp95
g38
S'MMMMMMMUMMMMDMMMMMMMMMMMMMMMUMMMMMMMUMMMMMMMMMMMMMMMMMMMMMMMMMDMMMMMUMMMMMMMMMMMMMMMMMMMMMMMMMMDMMMMMMMMMMMMMMMMMMMDMMMMMMMMMMMMMMMMMMMMMMMMMMMMMMMMMMMMMMMMDMMMMMMMMMMMMMMUMMMMMMMMMMMMMMMMMMMMMMMMMMMMMMMMMMMMMMMMMMMMUMMMUMMMMMMMMUMMMMMMMMMDMMMMMMMUMMMMMMMMMMDMMMMMMMMMMMMMMMMUMMMMMMDUMMMMMMMMMMMMMMMMMMMMMMMMMMMMMMMMMMMMMMMMMMMMMMMMMMMMMMMMMMMMMMMDUMMMMMMMMMMMMMMMMMMMMMMMMDMMMUMMMMMMMMMMMMMMMMMMMMMMMMMMMMDMMMMDMMMMMMMDMMMMMMMMMMMMMMMUUMDMMMMMMMMMMMMMDMMMMMMMMMMMMMMMMMMMMMMMMMMMMMMMMMMMMDMMMMMMMMMMMMMMMMMUMMMMMMMMMMMMMMMMMMMMMMMMMMUMMMMMMMMMMMMMMMMMMMMMMMMMMMMMUMUMMMMMMMMMMMMUDDMMMMDMMMMMMMD'
p96
ssg19
(dp97
g38
S'MMMMUMMMMMMMDMMMMMMMMMMMMMMMMMMMMMMMMMMMMMMUMMMMMMMMMMMMMMMMMMDMMMMMMMMMMMMMMMMMMMMMMMMMMMMMUMMDMMMMMMMMMMMUMMMMMMMDMMMMMMMMMMMMMMMMMMMMMMMMMMMMMMMMMMMMMMMMDMMMMMMMMMMMMMMMMMMMMMMMMMMMMMMMMMMMMMMMMMMMMMMMMMMMMMMMMMMMMMUMMMMMMMMMMMMMMMMMMMMDMMMUMMMMMMMMMMMMMMDMMMMMMMMMMMMMMMMMMMMMMMDMUMMUMMMMMMMMMMMMMMMMMMMMMMMMMMMUMMMMMMMMMMMMMMMMUMMMMMMMMMMMMMMDMMUMMMMMMMMMMMMMMMMMMMMMMDMMMMMMMMMMMMMMMMMMMMMMMMMMMMMMMMDMMMMDMMMUMMMDMMMMMMMMMMMMMMMMMMDMMMMMMMMMMMMMDMMMMMMMMMMMMMMMMMMMMMMMMMMMMMMMMMMMMDMMMMMMMMMMMUMMMMMMMMUMMMMMMMMMMMMMMMUMMMMMMMMMMMMMMMMUMMMMMMMMMMUMMMMMMMMMMMMMMMMMMMMMMMMMDDMMMMDMMMMMMMD'
p98
ssg21
(dp99
g38
S'MMMMMMMMMMMMDMMMMMMMMMMMMMMMMMMMMMMMMMMMMMMMMMMMMMMMMMMUMMMMMMDMMMMMMMMMMMMMMMMMMMMMMMMMMMMMMMMDUMMMMMMMMMMMMMMMMMMDMMMMMMMMMMMMMMMMMMMMMMMMMMMMMMMMMMMMMMMMDMMMMMMMMMMMMMUMMUMMMMMMMMMMMMMMMMMMMMMMMMMMMMMMMMMMMMMMMMMMMMMMMMMMMMMMMMMMMMMMMMUDMMMMMMMMMUMMMMMMMMDMMMMMMMMMMMMMMMMMMMMMMMDMMMMMMMMMMMMMMMMMMMMMMMUMMMMMMMMMMMMMMMMMMMMMUMMMMUMMMMMUMMMMMMMDMMMMMMMMMMUMMMMMMMMMMMMMMDMMMMMMMMMMMMMMMMMMMMMMMUMMMMMMMMDMMMMDMMMMMMMDMMMMMMMMUMMMMMMMMMDMMMMMMMMUMMMMDMMUMMMMMMMMMMMMMMMMMMMMMMMMMMMMMMMMMDMMMMMMUMMMMMMUMMMMMMMMMMMMMMMMMMMMMMMMMMMMMMMMMMMMMMMMMMMMMMMMMMUMMMMMMMMMMMMMMMMMMMMUMMMMDDMMMMDMMMMMMMU'
p100
ssg23
(dp101
g38
S'MMMMMMMMMMMUDMMMMMMMMMMMMMMMMMMMMMMMMMMMMMMMMMMMMMMMMMMMMMMMMMDMMMMMMMMMMMMMMMMUMMMMMMMMMMMMUMMDMMMMUMMMMMMMMMMMMMMDMMMMMMMMMMMMMMMMMMMMMMMMMMMMMMMMMMMMMMMMDMMMMMMMUMMMMMUMMMMMMMMMMMMMMMMMMMMMMUMMMMMMMMMMMMMMMMMMMMMMMMMUMMMUMMMMMUMMMMMMMMMDMMMMMMMMMMMMMMMMMMDMMMMMMMMUMMMMMMMMMMMMMMDMMUMMMMMMMMMMMMMMMMMMMMMMMMMUMMMMMMMMMMMMMMMUMMMMMMMMMMMMMMMMUMMDMMMMMMMMMMMUMMMMMMMMMMMMMDMMMMMMMMMMMMMMMMMMMUMMMMMMMMMMMMDMMMMDUMMMMMMDMMMMMMMMMMMMMMUMMMDMMMMMMMMMMMMMDMMMMMMMMMMMMMMMMMMMMMMMMMMMMMMMMMMMMDMMMMMMMMMUMMMMMMMMMMMMMMMMMMMMMMMMMMMMMMMMMMMMMMMMMMMMMMUMMMMMMMUMMMMMMMMMMMMMMMMMMMMMMMMMDDMMMMDMMMMMMMM'
p102
ssg25
(dp103
g38
S'MMMMMMMMMMMMDMMMMMMMMMMMMMMMMUMMMMMMMMUMMMMMMUMMMMMMUMMMMMMMMMDMMMMMMMMMMMMMMMMMMMMMMMMMMMMMMMMDMMMMMMMMUMMMMMMMMMMDMMMMMMMMMMMMMMMMMMMMUMMMMMMMMMMMMUMUMMMMDMMMMMUMMMMMMMMMMMMMMMMMMMMMMMMMMMMMMMMMMMMMMMMMMMMMMMMMMMMMMMMMMMMMMMMMMUMMMMMMMMMDMMMMMMMMMMMMMMMMMMDMMMMMMMMMMMMMMMMMMUMMMMDMMMMMMMMUMMMUMMMMMMMMMMMMMMMMMMMMMMMMMMMMMMMMMMMMMMMMMMMMMMMMMMMDMMMMMMMMMMMMMMMMMMMUMUMMMDMMMMMMMMMMMMMMMMMMMMMMMMMMMMMMMMDMMMMDMMMMMMMDMMMMMMMMMMMMMMMUMMDMMMMMMMMMMMMMDMMMMMMMMMMUMMMMUMMMMMMMMMMMMMMMMMMMMDMMMMMMMMMMMMMMMMMMMMMMMMMMMMMMMMMMMMMMMMMMMMMMMMMMMMMMMMMMMMMUMMMMMMMMMMMMUMMMMMMMMMMMMUMMDDMMMMDMMMMMMMD'
p104
ssg27
(dp105
g38
S'MMMMMMMMMMMMDMMMMMMMUMMMMMMMMMMMMMMMMMMMMMMMMMMMMMMMMMMMMMMMMMDMMMMMMMMMMMMMMMMMMMMMMMMMMMMMMMMDMMMMMMMMMMMMMMMMMMMDMMMMMMUMMMMMMMMMMMMMMMMMMMMUMMMMMMMMMMMMDMMMMMMMMMMMMMMMMMMMMMMMMMMMMUMMMMMMMMMMMMMMMMMMMMMMMMMUMMMMMMMMMMMMMMMMMMMMMMMMMMMDMMUMMMMMMMUMMMMMMMDMMMMMMMMMMMMMMMMMMMMMMMDMMUMMMMMMMMMMMMMMMUMMMMMMMMMMMMMMMMMMMUMMMUMMMMMMMMMMMMMMMMMMMMMDMMUMMMMMMMMMMMMMMMMMMMMMMDMMMMMMMMMMMMMMMMMMMMMMMMMMMUMMMMDMMMMDMMMUMMMDMMMMMMMMMMMMMMMMMMDMMMMMMMMMMMMMDMMMMMUMMMUMMMMMMMMMMMMMMMMMMMMMMMMMMDMMMMMMMMMMMMMMMMMMMMMMMMMMMMMMMMMMMMMMMMMMMMMMMMMMMMUMMMMMMMMMMMMMMMMMUMMMMMMMMMMMMMMMMMUMDDMMMMDMMMMMMMD'
p106
ssg29
(dp107
g38
S'MMMMMMMMMMMMDMMMMMUMMMMMMMMMMMMMMUMMMMMMMMMMMMMMMMMMMMMMMMMMUMDMMMMMMMMMMMMMMMMMMMMMMMMMMMMMMMMDMMMMMMMMMMMMMMMMMMMDMMMMMMMMMMMMMMMMMMMMMMMMMMMMMMMMMMMMMMMMDMMMMMMMMMMMMMMMMMMMMMMMMMMMMMMMMMMMMMMUMMMUMMMMMMMMMMMMMMMMMMMMMMMMMMMMMMMMMMMMMMMUMMMMMMMMMMMMMMMMMMDMMMMMMMMMMMMMMMMMMMMMMMDMMMMMMMMMMMMMMMMMMMMMMMMMMMMMMMMMMMMMMMMMMMMMMMMMMMMMMMMMMMMMMMMDMMMMMMMMMMMMMMMMMMMMMMMMUDMMMMMMMMMMMMMMMMMMMMMUMMMMUMMMMMDMMMMDMMMMMMMDMMMMMMMMMMMMMMMMMMDMMMMMMMMMMMMMDMMMMMMMMMMMMUMMMMMMMMMMMMMMMMMMMMMMMDMMMMMMMMMMMMMMMMMMMMMMMMMMMMMUMMMMMMMMMMMMMMMMMMMMMMMMMMMMMMMMUMMMMMMMMMMMMMMMMMMMMMMMMMMMDDUMMMDMMMMMMMU'
p108
sssg17
(dp109
g8
g44
sg11
g63
sg13
g80
sg15
g95
sg19
(dp110
g38
S'MMMMUMMDMMMMMMMMMMMMMMMMMMMMDMMMMMMMDMMMMMMUMMMMMMMMMMMMMMMMMMMMMMMMDMMMMMMMMMMMMMMMMMMMMMMMUMMMMMMMMMMMMMMUMMMMMMMMMMMMMMMMMMMMMMMMMMMMMMMMMMMMMMMMMMMMMMMMMMMMMMMMMMMMMMMDMMMMMMMMMMMMMMMMMMMMMMMMMMMMMMMMMMMMMMMMMMMMDMUMDMMMMMMMMDMMMMMMMMMMMMMUMMMDMMMMMMMMMMMMMMMMMMMMMMMMMMMDMMMMMMMDUMMUMMMMMMMMMMMMMMMMMMMMMMMMMMMUMMMMMMMMMMMMMMMMUMMMMMMMMMMMMMMMDMUMMMMMMMMMMMMMMMMMMMMMMMMMMDMMMMMMMMMMMMMMMMMMMMMMMMMMMMMMMMMMMMMUMMMMMMMMMMMMMMMMMMMDDMMMMMMMMMMMMMMMMMMMMMMMMMMMMMMMMMMMMMMMMMMMMMMMMMMMMMMMMMMMMMMMMUMMMMMDMMUMMMMMMMMMMMMMMMUMMMMMMMDMMMMMMMMUMMMMMMMMMMUMMMMMMMMMDMDMMMMMMMMMMMMDMMMMMMMMMMMMMMU'
p111
ssg21
(dp112
g38
S'MMMMMMMDMMMMMMMMMMMMMMMMMMMMDMMMMMMMDMMMMMMMMMMMMMMMMMMUMMMMMMMMMMMMDMMMMMMMMMMMMMMMMMMMMMMMMMMMUMMMMMMMMMMMMMMMMMMMMMMMMMMMMMMMMMMMMMMMMMMMMMMMMMMMMMMMMMMMMMMMMMMMMMMMMMUDMUMMMMMMMMMMMMMMMMMMMMMMMMMMMMMMMMMMMMMMMMMMDMMMDMMMMMMMMDMMMMMMMMUMMMMMMMMDMUMMMMMMMMMMMMMMMMMMMMMMMMMDMMMMMMMDMMMMMMMMMMMMMMMMMMMMMMUMMMMMMMMMMMMMMMMMMMMMUMMMMUMMMMMUMMMMMMMMDMMMMMMMMMUMMMMMMMMMMMMMMMMMMDMMMMMMMMMMMMMMMMMMMUMMMMMMMMMMMMMMMMMMMMMMMMMMMMMMUMMMMMMDDMMMMMMMMMMUMMMMMMMUMMMMMMMMMMMMMMMMMMMMMMMMMMMMMMMMMMMMMMMMUMMMMMMUMMMDMMMMMMMMMMMMMMMMMMMMMMMMMMDMMMMMMMMMMMMMMMMMMMUMMMMMMMMMDMDMMMMMMMMUMMMDMMMMMMMMMMMMMMU'
p113
ssg23
(dp114
g38
S'MMMMMMMDMMMUMMMMMMMMMMMMMMMMDMMMMMMMDMMMMMMMMMMMMMMMMMMMMMMMMMMMMMMMDMMMMMMMMMMUMMMMMMMMMMMMUMMMMMMMUMMMMMMMMMMMMMMMMMMMMMMMMMMMMMMMMMMMMMMMMMMMMMMMMMMMMMMMMMMMMMMMUMMMMMUDMMMMMMMMMMMMMMMMMMMMMUMMMMMMMMMMMMMMMMMMMMMMDMMUDMMUMMMMMDMMMMMMMMMMMMMMMMMDMMMMMMMMMMMMMMMMMMMUMMMMMMMDMMMMMMMDMUMMMMMMMMMMMMMMMMMMMMMMMMMUMMMMMMMMMMMMMMMUMMMMMMMMMMMMMMMMUMMMDMMMMMMMMMMUMMMMMMMMMMMMMMMMMDMMMMMMMMMMMMMMMUMMMMMMMMMMMMMMMMMMUMMMMMMMMMMMMMMMMMMMMMUDDMMMMMMMMMMMMMMMMMMMMMMMMMMMMMMMMMMMMMMMMMMMMMMMMMMMMMMMMMMMMMMUMMMMMMMDMMMMMMMMMMMMMMMMMMMMMMMMMMDMMMMMMMMMMMUMMMMMMMUMMMMMMMMMDMDMMMMMMMMMMMMDMMMMMMMMMMMMMMU'
p115
ssg25
(dp116
g38
S'MMMMMMMDMMMMMMMMMMMMMMMMMMMMDUMMMMMMDMUMMMMMMUMMMMMMUMMMMMMMMMMMMMMMDMMMMMMMMMMMMMMMMMMMMMMMMMMMMMMMMMMMUMMMMMMMMMMMMMMMMMMMMMMMMMMMMMMMUMMMMMMMMMMMMUMUMMMMMMMMMMUMMMMMMMMDMMMMMMMMMMMMMMMMMMMMMMMMMMMMMMMMMMMMMMMMMMMMDMMMDMMMMMMMMDMMMMMMMMMMMMMMMMMDMMMMMMMMMMMMMMMMMMMMMMMMMMMDMUMMMMMDMMMMMMMUMMMUMMMMMMMMMMMMMMMMMMMMMMMMMMMMMMMMMMMMMMMMMMMMMMMMMMMMDMMMMMMMMMMMMMMMMMMUMUMMMMMMMDMMMMMMMMMMMMMMMMMMMMMMMMMMMMMMMMMMMMMMMMMMMMMMMMMMMMMMMMMDDMMMMMMMMMMMMMMMMMMMMMMMMMMUMMMMUMMMMMMMMMMMMMMMMMMMMMMMMMMMMMMMMMMMMMMDMMMMMMMMMMMMMMMMMMMMMMMMMMDMMMMMMMMMMMMMMMMUMMMMMMMMMMMMDMDMMMMMMMMMMUMDMMMMMMMMMMMMMMU'
p117
ssg27
(dp118
g38
S'MMMMMMMDMMMMMMMMMMMMUMMMMMMMDMMMMMMMDMMMMMMMMMMMMMMMMMMMMMMMMMMMMMMMDMMMMMMMMMMMMMMMMMMMMMMMMMMMMMMMMMMMMMMMMMMMMMMMMMMMMMUMMMMMMMMMMMMMMMMMMMMUMMMMMMMMMMMMMMMMMMMMMMMMMMMDMMMMMMMMMMMMMUMMMMMMMMMMMMMMMMMMMMMMMMMUMMMMDMMMDMMMMMMMMDMMMMMMMMMMMMUMMMMDMMUMMMMMMMMMMMMMMMMMMMMMMMMDMMMMMMMDMUMMMMMMMMMMMMMMMUMMMMMMMMMMMMMMMMMMMUMMMUMMMMMMMMMMMMMMMMMMMMMMDMUMMMMMMMMMMMMMMMMMMMMMMMMMMDMMMMMMMMMMMMMMMMMMMMMMMUMMMMMMMMMMMMMUMMMMMMMMMMMMMMMMMMMDDMMMMMMMMMMMMMMMMMMMMMUMMMUMMMMMMMMMMMMMMMMMMMMMMMMMMMMMMMMMMMMMMMMMMMMDMMMMMMMMMMMMMMMMMMMMMMMMMMDMMMMMMMUMMMMMMMMMMMMMMMMMUMMMDMDMMMMMMMMMMMUDMMMMMMMMMMMMMMU'
p119
ssg29
(dp120
g38
S'MMMMMMMDMMMMMMMMMMUMMMMMMMMMDMMMMUMMDMMMMMMMMMMMMMMMMMMMMMMMUMMMMMMMDMMMMMMMMMMMMMMMMMMMMMMMMMMMMMMMMMMMMMMMMMMMMMMMMMMMMMMMMMMMMMMMMMMMMMMMMMMMMMMMMMMMMMMMMMMMMMMMMMMMMMMDMMMMMMMMMMMMMMMMMMMMMMMUMMMUMMMMMMMMMMMMMMMMDMMMDMMMMMMMMDMMMMMMMMMUMMMMMMMDMMMMMMMMMMUMMMMMMMMMMMMMMMMDMMMMMMMDMMMMMMMMMMMMMMMMMMMMMMMMMMMMMMMMMMMMMMMMMMMMMMMMMMMMMMMMMMMMMMMMDMMMMMMMMMMMMMMMMMMMMMMMUMMMMDMMMMMMMMMMMMMMMMMUMMMMUMMMMMMMMMMMMMMMMMMMMMMMMMMMMMMMMMMDDMMMMMMMMMMMMMMMMMMMMMMMMMMMMUMMMMMMMMMMMMMMMMMMMMMMMMMMMMMMMMMMMMMMMMMDMMMMMMMMMMMUMMMMMMMMMMMMMMDMMMMMMMMMMMMMMMMMUMMMMMMMMMMMDMDMMMMMMMMMMMMDMMUMMMMMMMMMMMU'
p121
sssg19
(dp122
g8
g46
sg11
g65
sg13
g82
sg15
g97
sg17
g110
sg21
(dp123
g38
S'MMMMDMMMMMMMMMMMMMMMMMMMMMMMMMMMMMMMMMMMMMMDMMMMMMMMMMMUMMMMMMMMMMMMMMMMMMMMMMMMMMMMMMMMMMMMDMMMUMMMMMMMMMMDMMMMMMMMMMMMMMMMMMMMMMMMMMMMMMMMMMMMMMMMMMMMMMMMMMMMMMMMMMMMMMUMMUMMMMMMMMMMMMMMMMMMMMMMMMMMMMMMMMMMMMMMMMMMMMDMMMMMMMMMMMMMMMMMMMUMMMMDMMMMMUMMMMMMMMMMMMMMMMMMMMMMMMMMMMMMMMMMDMMDMMMMMMMMMMMMMMMMMMUMMMMMMMMDMMMMMMMMMMMMUMMMDUMMMMMUMMMMMMMMMMDMMMMMMMUMMMMMMMMMMMMMMMMMMMMMMMMMMMMMMMMMMMMMMUMMMMMMMMMMMMMMMMMDMMMMMMMMMMMMUMMMMMMMMMMMMMMMMMMUMMMMMMMUMMMMMMMMMMMMMMMMMMMMMMMMMMMMMMMMMMMMMMMMUMMMMDMUMMMMMMDMMMMMMMMMMMMMMMDMMMMMMMMMMMMMMMMDMMMMMMMMMMDMMMMMMMMMMMMMMMMMMMMUMMMMMMMMMMMMMMMMMMU'
p124
ssg23
(dp125
g38
S'MMMMDMMMMMMUMMMMMMMMMMMMMMMMMMMMMMMMMMMMMMMDMMMMMMMMMMMMMMMMMMMMMMMMMMMMMMMMMMMUMMMMMMMMMMMMDMMMMMMMUMMMMMMDMMMMMMMMMMMMMMMMMMMMMMMMMMMMMMMMMMMMMMMMMMMMMMMMMMMMMMMMUMMMMMUMMMMMMMMMMMMMMMMMMMMMMUMMMMMMMMMMMMMMMMMMMMMMMMDUMMMUMMMMMUMMMMMMMMMMMMMDMMMMMMMMMMMMMMMMMMMMMMMUMMMMMMMMMMMMMMMMDUMDMMMMMMMMMMMMMMMMMMMMMMMUMMMDMMMMMMMMMMMUMMMMDMMMMMMMMMMMUMMMMMDMMMMMMMMUMMMMMMMMMMMMMMMMMMMMMMMMMMMMMMMMMUMMMMMMMMMMMMMMMMMMUMMDMMMMMMMMMMMMMMMMMMUMMMMMMMMMMMMMMMMMMMMMMMMMMMMMMMMMMMMMMMMMMMMMMMMMMMMMMMMMMMMMMMMUMDMMMMMMMMDMMMMMMMMMMMMMMMDMMMMMMMMMMMMMMMMDMMUMMMMMMMDMMMMMMMMMMMMMMMMMMMMMMMMMMMMMMMMMMMMMMMU'
p126
ssg25
(dp127
g38
S'MMMMDMMMMMMMMMMMMMMMMMMMMMMMMUMMMMMMMMUMMMMDMUMMMMMMUMMMMMMMMMMMMMMMMMMMMMMMMMMMMMMMMMMMMMMMDMMMMMMMMMMMUMMDMMMMMMMMMMMMMMMMMMMMMMMMMMMMUMMMMMMMMMMMMUMUMMMMMMMMMMUMMMMMMMMMMMMMMMMMMMMMMMMMMMMMMMMMMMMMMMMMMMMMMMMMMMMMMMDMMMMMMMMMMUMMMMMMMMMMMMMDMMMMMMMMMMMMMMMMMMMMMMMMMMMMMMMMMUMMMMMMDMMDMMMUMMMUMMMMMMMMMMMMMMMMMMMDMMMMMMMMMMMMMMMMDMMMMMMMMMMMMMMMMMDMMMMMMMMMMMMMMMMUMUMMMMMMMMMMMMMMMMMMMMMMMMMMMMMMMMMMMMMMMMMMMMMDMMMMMMMMMMMMMMMMMMMUMMMMMMMMMMMMMMMMMMMMMMMMMMMUMMMMUMMMMMMMMMMMMMMMMMMMMMMMMMMMMMMMMDMMMMMMMMDMMMMMMMMMMMMMMMDMMMMMMMMMMMMMMMMDMMMMMMMUMMDMMMMMMMMMUMMMMMMMMMMMMUMMMMMMMMMMMMMMMMU'
p128
ssg27
(dp129
g38
S'MMMMDMMMMMMMMMMMMMMMUMMMMMMMMMMMMMMMMMMMMMMDMMMMMMMMMMMMMMMMMMMMMMMMMMMMMMMMMMMMMMMMMMMMMMMMDMMMMMMMMMMMMMMDMMMMMMMMMMMMMMUMMMMMMMMMMMMMMMMMMMMUMMMMMMMMMMMMMMMMMMMMMMMMMMMMMMMMMMMMMMMMMUMMMMMMMMMMMMMMMMMMMMMMMMMUMMMMMMDMMMMMMMMMMMMMMMMMMMMMMMUDMMMMMMUMMMMMMMMMMMMMMMMMMMMMMMMMMMMMMMMMDUMDMMMMMMMMMMMMMUMMMMMMMMMMMMMDMMMMMUMMMUMMMMMMDMMMMMMMMMMMMMMMMMUMMMMMMMMMMMMMMMMMMMMMMMMMMMMMMMMMMMMMMMMMMMMMMMMMMUMMMMMMMMMMMMMUMMMMMMMMMMMMMMMMMMMMMMMMMMMMMMMMMMMMMMMMMMUMMMUMMMMMMMMMMMMMMMMMMMMMMMMMMMMMMMMMMMMMMDMMMMMMMMDMMMMMMMMMMMMMMMDMMMMMMMMMMMMMMMUDMMMMMMMMMMDMMMMMUMMMMMMMMMMMMMMMMMUMMMMMMMMMMMMMMMM'
p130
ssg29
(dp131
g38
S'MMMMDMMMMMMMMMMMMMUMMMMMMMMMMMMMMUMMMMMMMMMDMMMMMMMMMMMMMMMMUMMMMMMMMMMMMMMMMMMMMMMMMMMMMMMMDMMMMMMMMMMMMMMDMMMMMMMMMMMMMMMMMMMMMMMMMMMMMMMMMMMMMMMMMMMMMMMMMMMMMMMMMMMMMMMMMMMMMMMMMMMMMMMMMMMMMMMUMMMUMMMMMMMMMMMMMMMMMMDMMMMMMMMMMMMMMMMMMMMUMMMDMMMMMMMMMMMMMMUMMMMMMMMMMMMMMMMMMMMMMMMMDMMDMMMMMMMMMMMMMMMMMMMMMMMMMMMDMMMMMMMMMMMMMMMMDMMMMMMMMMMMMMMMMMDMMMMMMMMMMMMMMMMMMMMMUMMMMMMMMMMMMMMMMMMMMMMUMMMMUMMMMMMMMMMMMMMDMMMMMMMMMMMMMMMMMMMMMMMMMMMMMMMMMMMMMMMMMMMMMMMMMUMMMMMMMMMMMMMMMMMMMMMMMMMMMMMMMMMMMDMMMMMMMMDMMMMMMMMUMMMMMMDMMMMMMMMMMMMMMMMDMMMMMMMMUMDMMMMMMMMMMMMMMMMMMMMMMMMMMMUMMMMMMMMMMMU'
p132
sssg21
(dp133
g8
g48
sg11
g67
sg13
g84
sg15
g99
sg17
g112
sg19
g123
sg23
(dp134
g38
S'MMMMMMMMMMMUMMMMMMMMMMMMMMMMMMMMMMMMMMMMMMMMMMMMMMMMMMMDMMMMMMMMMMMMMMMMMMMMMMMUMMMMMMMMMMMMUMMMDMMMUMMMMMMMMMMMMMMMMMMMMMMMMMMMMMMMMMMMMMMMMMMMMMMMMMMMMMMMMMMMMMMMUMMMMMDMMDMMMMMMMMMMMMMMMMMMMUMMMMMMMMMMMMMMMMMMMMMMMMMUMMMUMMMMMUMMMMMMMMDMMMMMMMMMMDMMMMMMMMMMMMMMMMMUMMMMMMMMMMMMMMMMMUMMMMMMMMMMMMMMMMMMMMDMMMMUMMMMMMMMMMMMMMMUDMMMMDMMMMMDMMMMUMMMMMMMMMMMMMDUMMMMMMMMMMMMMMMMMMMMMMMMMMMMMMMMMUMMMDMMMMMMMMMMMMMMUMMMMMMMMMMMMMMMDMMMMMUMMMMMMMMMMMMDMMMMMMMDMMMMMMMMMMMMMMMMMMMMMMMMMMMMMMMMMMMMMMMMDMMUMMMDMMMMMMMMMMMMMMMMMMMMMMMMMMMMMMMMMMMMMMMMMMUMMMMMMMUMMMMMMMMMMMMMMMMMMMMDMMMMMMMMMMMMMMMMMMD'
p135
ssg25
(dp136
g38
S'MMMMMMMMMMMMMMMMMMMMMMMMMMMMMUMMMMMMMMUMMMMMMUMMMMMMUMMDMMMMMMMMMMMMMMMMMMMMMMMMMMMMMMMMMMMMMMMMDMMMMMMMUMMMMMMMMMMMMMMMMMMMMMMMMMMMMMMMUMMMMMMMMMMMMUMUMMMMMMMMMMUMMMMMMMDMMDMMMMMMMMMMMMMMMMMMMMMMMMMMMMMMMMMMMMMMMMMMMMMMMMMMMMMMMUMMMMMMMMDMMMMMMMMMMDMMMMMMMMMMMMMMMMMMMMMMMMMMMUMMMMMMMMMMMMMUMMMUMMMMMMMMMMDMMMMMMMMMMMMMMMMMMMMMDMMMMDMMMMMDMMMMMMMMMMMMMMMMMMDMMMMMMMMUMUMMMMMMMMMMMMMMMMMMMMMMMMMMMDMMMMMMMMMMMMMMMMMMMMMMMMMMMMMMDMMMMMMUMMMMMMMMMMMDMMMMMMMDMMMMMMMUMMMMUMMMMMMMMMMMMMMMMMMMMMMMMMMMDMMMMMMDMMMMMMMMMMMMMMMMMMMMMMMMMMMMMMMMMMMMMMMMMMMMMMMUMMDMMMMMMMMMUMMMMMMMMMMDMUMMMMMMMMMMMMMMMMD'
p137
ssg27
(dp138
g38
S'MMMMMMMMMMMMMMMMMMMMUMMMMMMMMMMMMMMMMMMMMMMMMMMMMMMMMMMDMMMMMMMMMMMMMMMMMMMMMMMMMMMMMMMMMMMMMMMMDMMMMMMMMMMMMMMMMMMMMMMMMMUMMMMMMMMMMMMMMMMMMMMUMMMMMMMMMMMMMMMMMMMMMMMMMMDMMDMMMMMMMMMMMUMMMMMMMMMMMMMMMMMMMMMMMMMUMMMMMMMMMMMMMMMMMMMMMMMMMMDMMMUMMMMMMDUMMMMMMMMMMMMMMMMMMMMMMMMMMMMMMMMMMUMMMMMMMMMMMMMMMUMMMMDMMMMMMMMMMMMMMUMMMUMMDMMMMDMMMMMDMMMMMMMMMMUMMMMMMMDMMMMMMMMMMMMMMMMMMMMMMMMMMMMMMMMMMMMMMDMMMUMMMMMMMMMMMMMUMMMMMMMMMMMMDMMMMMMMMMMMMMMMMMMDMMMMMMMDMMUMMMUMMMMMMMMMMMMMMMMMMMMMMMMMMMMMMMMMDMMMMMMDMMMMMMMMMMMMMMMMMMMMMMMMMMMMMMMMMMMMMMUMMMMMMMMMMMDMMMMMUMMMMMMMMMMMMMMDMMUMMMMMMMMMMMMMMMD'
p139
ssg29
(dp140
g38
S'MMMMMMMMMMMMMMMMMMUMMMMMMMMMMMMMMUMMMMMMMMMMMMMMMMMMMMMDMMMMUMMMMMMMMMMMMMMMMMMMMMMMMMMMMMMMMMMMDMMMMMMMMMMMMMMMMMMMMMMMMMMMMMMMMMMMMMMMMMMMMMMMMMMMMMMMMMMMMMMMMMMMMMMMMMDMMDMMMMMMMMMMMMMMMMMMMMMUMMMUMMMMMMMMMMMMMMMMMMMMMMMMMMMMMMMMMMMMMMDUMMMMMMMMMDMMMMMMMMUMMMMMMMMMMMMMMMMMMMMMMMMMMMMMMMMMMMMMMMMMMMMMMMDMMMMMMMMMMMMMMMMMMMMMDMMMMDMMMMMDMMMMMMMMMMMMMMMMMMDMMMMMMMMMMMMMUMMMMMMMMMMMMMMMMMMMMMMUMDMMUMMMMMMMMMMMMMMMMMMMMMMMMMMMDMMMMMMMMMMMMMMMMMMDMMMMMMMDMMMMMMMMMUMMMMMMMMMMMMMMMMMMMMMMMMMMMMMMDMMMMMMDMMMMMMMMMMMMMMMUMMMMMMMMMMMMMMMMMMMMMMMMMMMMMMMMUMDMMMMMMMMMMMMMMMMMMMMDMMMMMMUMMMMMMMMMMMD'
p141
sssg23
(dp142
g8
g50
sg11
g69
sg13
g86
sg15
g101
sg17
g114
sg19
g125
sg21
g134
sg25
(dp143
g38
S'MMMMMMMMMMMDMMMMMMMMMMMMMMMMMUMMMMMMMMUMMMMMMUMMMMMMUMMMMMMMMMMMMMMMMMMMMMMMMMMDMMMMMMMMMMMMDMMMMMMMDMMMUMMMMMMMMMMMMMMMMMMMMMMMMMMMMMMMUMMMMMMMMMMMMUMUMMMMMMMMMMUMDMMMMMDMMMMMMMMMMMMMMMMMMMMMMDMMMMMMMMMMMMMMMMMMMMMMMMMDMMMDMMMMMUMMMMMMMMMMMMMMMMMMMMMMMMMMMMMMMMMMMMMDMMMMMMMMMUMMMMMMMDMMMMMUMMMUMMMMMMMMMMMMMMMDMMMMMMMMMMMMMMMDMMMMMMMMMMMMMMMMDMMMMMMMMMMMMMMDMMMMMMMUMUMMMMMMMMMMMMMMMMMMMMMMMDMMMMMMMMMMMMMMMMMMDMMMMMMMMMMMMMMMMMMMMMDUMMMMMMMMMMMMMMMMMMMMMMMMMMMUMMMMUMMMMMMMMMMMMMMMMMMMMMMMMMMMMMMDMMMMMMMMMMMMMMMMMMMMMMMMMMMMMMMMMMMMMMMMMMMMMMDMMMMUMMDMMMMMMMMMUMMMMMMMMMMMMUMMMMMMMMMMMMMMMMD'
p144
ssg27
(dp145
g38
S'MMMMMMMMMMMDMMMMMMMMUMMMMMMMMMMMMMMMMMMMMMMMMMMMMMMMMMMMMMMMMMMMMMMMMMMMMMMMMMMDMMMMMMMMMMMMDMMMMMMMDMMMMMMMMMMMMMMMMMMMMMUMMMMMMMMMMMMMMMMMMMMUMMMMMMMMMMMMMMMMMMMMDMMMMMDMMMMMMMMMMMMMMUMMMMMMMDMMMMMMMMMMMMMMMMMUMMMMMMMDMMMDMMMMMDMMMMMMMMMMMMUMMMMMMMUMMMMMMMMMMMMMMMMDMMMMMMMMMMMMMMMMMUMMMMMMMMMMMMMMMUMMMMMMMMMDMMMMMMMMMUMMMUMDMMMMMMMMMMMMMMMMDMMMMMUMMMMMMMMDMMMMMMMMMMMMMMMMMMMMMMMMMMMMMMMMMDMMMMMMMUMMMMMMMMMMDMMUMMMMMMMMMMMMMMMMMMDMMMMMMMMMMMMMMMMMMMMMMMUMMMUMMMMMMMMMMMMMMMMMMMMMMMMMMMMMMMMMMMMDMMMMMMMMMMMMMMMMMMMMMMMMMMMMMMMMMMMMMMMMMMUMMMDMMMMMMMDMMMMMUMMMMMMMMMMMMMMMMMUMMMMMMMMMMMMMMMD'
p146
ssg29
(dp147
g38
S'MMMMMMMMMMMDMMMMMMUMMMMMMMMMMMMMMUMMMMMMMMMMMMMMMMMMMMMMMMMMUMMMMMMMMMMMMMMMMMMDMMMMMMMMMMMMDMMMMMMMDMMMMMMMMMMMMMMMMMMMMMMMMMMMMMMMMMMMMMMMMMMMMMMMMMMMMMMMMMMMMMMMDMMMMMDMMMMMMMMMMMMMMMMMMMMMMDMUMMMUMMMMMMMMMMMMMMMMMMMDMMMDMMMMMDMMMMMMMMMUMMMMMMMMMMMMMMMMMMUMMMMMMMMDMMMMMMMMMMMMMMMMMDMMMMMMMMMMMMMMMMMMMMMMMMMDMMMMMMMMMMMMMMMDMMMMMMMMMMMMMMMMDMMMMMMMMMMMMMMDMMMMMMMMMMMMUMMMMMMMMMMMMMMMMMMMMDMUMMMMUMMMMMMMMMMMDMMMMMMMMMMMMMMMMMMMMMDMMMMMMMMMMMMMMMMMMMMMMMMMMMMMMUMMMMMMMMMMMMMMMMMMMMMMMMMMMMMMMMMDMMMMMMMMMMMMMMMMMMMUMMMMMMMMMMMMMMMMMMMMMMMMMMDMMMMMUMDMMMMMMMMMMMMMMMMMMMMMMMMMMMUMMMMMMMMMMMM'
p148
sssg25
(dp149
g8
g52
sg11
g71
sg13
g88
sg15
g103
sg17
g116
sg19
g127
sg21
g136
sg23
g143
sg27
(dp150
g38
S'MMMMMMMMMMMMMMMMMMMMUMMMMMMMMDMMMMMMMMDMMMMMMDMMMMMMDMMMMMMMMMMMMMMMMMMMMMMMMMMMMMMMMMMMMMMMMMMMMMMMMMMMDMMMMMMMMMMMMMMMMMUMMMMMMMMMMMMMDMMMMMMUMMMMMDMDMMMMMMMMMMDMMMMMMMMMMMMMMMMMMMMMMUMMMMMMMMMMMMMMMMMMMMMMMMMUMMMMMMMMMMMMMMMMMDMMMMMMMMMMMMUMMMMMMMUMMMMMMMMMMMMMMMMMMMMMMMMMMDMMMMMMMUMMMMMDMMMDMMMMMUMMMMMMMMMMMMMMMMMMMUMMMUMMMMMMMMMMMMMMMMMMMMMMMMUMMMMMMMMMMMMMMMMDMDMMMMMMMMMMMMMMMMMMMMMMMMMMMMMMMUMMMMMMMMMMMMMUMMMMMMMMMMMMMMMMMMMDMMMMMMMMMMMMMMMMMMMMMMUMMMUDMMMMDMMMMMMMMMMMMMMMMMMMMMMMMMMMMMMMMMMMMMMMMMMMMMMMMMMMMMMMMMMMMMMMMMMMMMMMMMUMMMMMMMMDMMMMMMMMUMMMDMMMMMMMMMMMMDUMMMMMMMMMMMMMMMD'
p151
ssg29
(dp152
g38
S'MMMMMMMMMMMMMMMMMMUMMMMMMMMMMDMMMUMMMMDMMMMMMDMMMMMMDMMMMMMMUMMMMMMMMMMMMMMMMMMMMMMMMMMMMMMMMMMMMMMMMMMMDMMMMMMMMMMMMMMMMMMMMMMMMMMMMMMMDMMMMMMMMMMMMDMDMMMMMMMMMMDMMMMMMMMMMMMMMMMMMMMMMMMMMMMMMMMUMMMUMMMMMMMMMMMMMMMMMMMMMMMMMMMMMDMMMMMMMMMUMMMMMMMMMMMMMMMMMMUMMMMMMMMMMMMMMMMMMDMMMMMMMMMMMMMDMMMDMMMMMMMMMMMMMMMMMMMMMMMMMMMMMMMMMMMMMMMMMMMMMMMMMMMMMMMMMMMMMMMMMMMMMMMDMDMMUMMMMMMMMMMMMMMMMMMMMMMUMMMMUMMMMMMMMMMMMMMMMMMMMMMMMMMMMMMMMMMDMMMMMMMMMMMMMMMMMMMMMMMMMMMDMUMMDMMMMMMMMMMMMMMMMMMMMMMMMMMMMMMMMMMMMMMMMMMMMMMMMMMUMMMMMMMMMMMMMMMMMMMMMMMMMMMMMMMDUMMMMMMMMMMMDMMMMMMMMMMMMDMMMMUMMMMMMMMMMMU'
p153
sssg27
(dp154
g8
g54
sg11
g73
sg13
g90
sg15
g105
sg17
g118
sg19
g129
sg21
g138
sg23
g145
sg25
g150
sg29
(dp155
g38
S'MMMMMMMMMMMMMMMMMMUMDMMMMMMMMMMMMUMMMMMMMMMMMMMMMMMMMMMMMMMMUMMMMMMMMMMMMMMMMMMMMMMMMMMMMMMMMMMMMMMMMMMMMMMMMMMMMMMMMMMMMMDMMMMMMMMMMMMMMMMMMMMDMMMMMMMMMMMMMMMMMMMMMMMMMMMMMMMMMMMMMMMMMDMMMMMMMMMUMMMUMMMMMMMMMMMDMMMMMMMMMMMMMMMMMMMMMMMMMMMUMMDMMMMMMMDMMMMMMMUMMMMMMMMMMMMMMMMMMMMMMMMMMDMMMMMMMMMMMMMMMDMMMMMMMMMMMMMMMMMMMDMMMDMMMMMMMMMMMMMMMMMMMMMMMMDMMMMMMMMMMMMMMMMMMMMMUMMMMMMMMMMMMMMMMMMMMMMUMMMMUDMMMMMMMMMMMMMDMMMMMMMMMMMMMMMMMMMMMMMMMMMMMMMMMMMMMMMMMMDMMMDMMUMMMMMMMMMMMMMMMMMMMMMMMMMMMMMMMMMMMMMMMMMMMMMMMMMMMMMUMMMMMMMMMMMMMMMMMMMMMMDMMMMMMMMMUMMMMMMMDMMMMMMMMMMMMMMMMMDMMMUMMMMMMMMMMMU'
p156
sssg29
(dp157
g8
g56
sg11
g75
sg13
g92
sg15
g107
sg17
g120
sg19
g131
sg21
g140
sg23
g147
sg25
g152
sg27
g155
sssS'adj'
p158
g35
sb.